

Microchip MPLAB XC8 Assembler V2.45 build 20230818022343 
                                                                                               Thu Jan 18 22:25:17 2024

Microchip MPLAB XC8 C Compiler v2.45 (Free license) build 20230818022343 Og1 
     1                           	processor	18F47Q83
     2                           	fnconf	rparam,??,?,0
     3                           	pagewidth 120
     4                           	opt	flic
     5                           	psect	idataCOMRAM,global,class=CODE,delta=1,noexec
     6                           	psect	idataBANK5,global,class=CODE,delta=1,noexec
     7                           	psect	idataBANK6,global,class=CODE,delta=1,noexec
     8                           	psect	smallconst,global,reloc=2,class=SMALLCONST,delta=1,noexec
     9                           	psect	cinit,global,reloc=2,class=CODE,delta=1
    10                           	psect	bssCOMRAM,global,class=COMRAM,space=1,delta=1,lowdata,noexec
    11                           	psect	dataCOMRAM,global,class=COMRAM,space=1,delta=1,lowdata,noexec
    12                           	psect	dataBANK5,global,class=BANK5,space=1,delta=1,lowdata,noexec
    13                           	psect	bssBANK6,global,class=BANK6,space=1,delta=1,lowdata,noexec
    14                           	psect	dataBANK6,global,class=BANK6,space=1,delta=1,lowdata,noexec
    15                           	psect	cstackBANK5,global,class=BANK5,space=1,delta=1,lowdata,noexec
    16                           	psect	cstackCOMRAM,global,class=COMRAM,space=1,delta=1,lowdata,noexec
    17                           	psect	text0,global,reloc=2,class=CODE,delta=1
    18                           	psect	text1,global,reloc=2,class=CODE,delta=1
    19                           	psect	text2,global,reloc=2,class=CODE,delta=1
    20                           	psect	text3,global,reloc=2,class=CODE,delta=1
    21                           	psect	text4,global,reloc=2,class=CODE,delta=1
    22                           	psect	text5,global,reloc=2,class=CODE,delta=1
    23                           	psect	text6,global,reloc=2,class=CODE,delta=1
    24                           	psect	text7,global,reloc=2,class=CODE,delta=1
    25                           	psect	text8,global,reloc=2,class=CODE,delta=1
    26                           	psect	text9,global,reloc=2,class=CODE,delta=1
    27                           	psect	text10,global,reloc=2,class=CODE,delta=1
    28                           	psect	ivt0x8,global,reloc=2,class=CODE,delta=1,noexec,keep,optim=
    29                           	psect	intsave_regs,global,class=BIGRAM,space=1,delta=1,noexec
    30                           	psect	text11,global,reloc=2,class=CODE,delta=1
    31                           	psect	rparam,global,class=COMRAM,space=1,delta=1,noexec
    32                           	psect	config,global,abs,ovrld,class=CONFIG,space=4,delta=1,noexec
    33   000000                     
    34                           ; Generated 18/07/2023 GMT
    35                           ; 
    36                           ; Copyright © 2023, Microchip Technology Inc. and its subsidiaries ("Microchip")
    37                           ; All rights reserved.
    38                           ; 
    39                           ; This software is developed by Microchip Technology Inc. and its subsidiaries ("Microch
      +                          ip").
    40                           ; 
    41                           ; Redistribution and use in source and binary forms, with or without modification, are
    42                           ; permitted provided that the following conditions are met:
    43                           ; 
    44                           ;     1. Redistributions of source code must retain the above copyright notice, this lis
      +                          t of
    45                           ;        conditions and the following disclaimer.
    46                           ; 
    47                           ;     2. Redistributions in binary form must reproduce the above copyright notice, this 
      +                          list
    48                           ;        of conditions and the following disclaimer in the documentation and/or other
    49                           ;        materials provided with the distribution. Publication is not required when
    50                           ;        this file is used in an embedded application.
    51                           ; 
    52                           ;     3. Microchip's name may not be used to endorse or promote products derived from th
      +                          is
    53                           ;        software without specific prior written permission.
    54                           ; 
    55                           ; THIS SOFTWARE IS PROVIDED BY MICROCHIP "AS IS" AND ANY EXPRESS OR IMPLIED WARRANTIES,
    56                           ; INCLUDING, BUT NOT LIMITED TO, THE IMPLIED WARRANTIES OF MERCHANTABILITY AND FITNESS F
      +                          OR
    57                           ; PURPOSE ARE DISCLAIMED.  IN NO EVENT SHALL MICROCHIP BE LIABLE FOR ANY DIRECT, INDIREC
      +                          T,
    58                           ; INCIDENTAL, SPECIAL, EXEMPLARY, OR CONSEQUENTIAL DAMAGES (INCLUDING BUT NOT LIMITED TO
    59                           ; PROCUREMENT OF SUBSTITUTE GOODS OR SERVICES; LOSS OF USE, DATA OR PROFITS; OR BUSINESS
    60                           ; INTERRUPTION) HOWSOEVER CAUSED AND ON ANY THEORY OF LIABILITY, WHETHER IN CONTRACT, ST
      +                          RICT
    61                           ; LIABILITY, OR TORT (INCLUDING NEGLIGENCE OR OTHERWISE) ARISING IN ANY WAY OUT OF THE U
      +                          SE OF
    62                           ; THIS SOFTWARE, EVEN IF ADVISED OF THE POSSIBILITY OF SUCH DAMAGE.
    63                           ; 
    64                           ; 
    65                           ; Code-generator required, PIC18F47Q83 Definitions
    66                           ; 
    67                           ; SFR Addresses
    68   000000                     
    69                           	psect	idataCOMRAM
    70   003B2C                     __pidataCOMRAM:
    71                           	callstack 0
    72                           
    73                           ;initializer for transmitData@F23515
    74   003B2C  41                 	db	65
    75   003B2D  54                 	db	84
    76   003B2E  2B                 	db	43
    77   003B2F  48                 	db	72
    78   003B30  54                 	db	84
    79   003B31  54                 	db	84
    80   003B32  50                 	db	80
    81   003B33  49                 	db	73
    82   003B34  4E                 	db	78
    83   003B35  49                 	db	73
    84   003B36  54                 	db	84
    85   003B37  00                 	db	0
    86                           
    87                           ;initializer for updateCoordinates@F23505
    88   003B38  41                 	db	65
    89   003B39  54                 	db	84
    90   003B3A  2B                 	db	43
    91   003B3B  43                 	db	67
    92   003B3C  47                 	db	71
    93   003B3D  4E                 	db	78
    94   003B3E  53                 	db	83
    95   003B3F  49                 	db	73
    96   003B40  4E                 	db	78
    97   003B41  46                 	db	70
    98   003B42  00                 	db	0
    99                           
   100                           ;initializer for read@F23458
   101   003B43  52                 	db	82
   102   003B44  65                 	db	101
   103   003B45  61                 	db	97
   104   003B46  64                 	db	100
   105   003B47  69                 	db	105
   106   003B48  6E                 	db	110
   107   003B49  67                 	db	103
   108   003B4A  2E                 	db	46
   109   003B4B  2E                 	db	46
   110   003B4C  2E                 	db	46
   111   003B4D  00                 	db	0
   112                           
   113                           ;initializer for read@F23460
   114   003B4E  49                 	db	73
   115   003B4F  6E                 	db	110
   116   003B50  20                 	db	32
   117   003B51  6C                 	db	108
   118   003B52  6F                 	db	111
   119   003B53  6F                 	db	111
   120   003B54  70                 	db	112
   121   003B55  00                 	db	0
   122                           
   123                           	psect	idataBANK5
   124   003BA6                     __pidataBANK5:
   125                           	callstack 0
   126                           
   127                           ;initializer for transmitData@F23523
   128   003BA6  41                 	db	65
   129   003BA7  54                 	db	84
   130   003BA8  2B                 	db	43
   131   003BA9  48                 	db	72
   132   003BAA  54                 	db	84
   133   003BAB  54                 	db	84
   134   003BAC  50                 	db	80
   135   003BAD  54                 	db	84
   136   003BAE  45                 	db	69
   137   003BAF  52                 	db	82
   138   003BB0  4D                 	db	77
   139   003BB1  00                 	db	0
   140                           
   141                           	psect	idataBANK6
   142   003A40                     __pidataBANK6:
   143                           	callstack 0
   144                           
   145                           ;initializer for transmitData@F23511
   146   003A40  62                 	db	98
   147   003A41  61                 	db	97
   148   003A42  73                 	db	115
   149   003A43  69                 	db	105
   150   003A44  63                 	db	99
   151   003A45  61                 	db	97
   152   003A46  6C                 	db	108
   153   003A47  6C                 	db	108
   154   003A48  79                 	db	121
   155   003A49  2D                 	db	45
   156   003A4A  63                 	db	99
   157   003A4B  6C                 	db	108
   158   003A4C  65                 	db	101
   159   003A4D  61                 	db	97
   160   003A4E  6E                 	db	110
   161   003A4F  2D                 	db	45
   162   003A50  61                 	db	97
   163   003A51  6C                 	db	108
   164   003A52  70                 	db	112
   165   003A53  61                 	db	97
   166   003A54  63                 	db	99
   167   003A55  61                 	db	97
   168   003A56  2E                 	db	46
   169   003A57  6E                 	db	110
   170   003A58  67                 	db	103
   171   003A59  72                 	db	114
   172   003A5A  6F                 	db	111
   173   003A5B  6B                 	db	107
   174   003A5C  2D                 	db	45
   175   003A5D  66                 	db	102
   176   003A5E  72                 	db	114
   177   003A5F  65                 	db	101
   178   003A60  65                 	db	101
   179   003A61  2E                 	db	46
   180   003A62  61                 	db	97
   181   003A63  70                 	db	112
   182   003A64  70                 	db	112
   183   003A65  00                 	db	0
   184                           
   185                           ;initializer for transmitData@F23513
   186   003A66  35                 	db	53
   187   003A67  35                 	db	53
   188   003A68  66                 	db	102
   189   003A69  32                 	db	50
   190   003A6A  30                 	db	48
   191   003A6B  31                 	db	49
   192   003A6C  61                 	db	97
   193   003A6D  39                 	db	57
   194   003A6E  64                 	db	100
   195   003A6F  66                 	db	102
   196   003A70  37                 	db	55
   197   003A71  30                 	db	48
   198   003A72  37                 	db	55
   199   003A73  63                 	db	99
   200   003A74  31                 	db	49
   201   003A75  32                 	db	50
   202   003A76  64                 	db	100
   203   003A77  38                 	db	56
   204   003A78  30                 	db	48
   205   003A79  31                 	db	49
   206   003A7A  32                 	db	50
   207   003A7B  62                 	db	98
   208   003A7C  61                 	db	97
   209   003A7D  32                 	db	50
   210   003A7E  62                 	db	98
   211   003A7F  31                 	db	49
   212   003A80  31                 	db	49
   213   003A81  31                 	db	49
   214   003A82  63                 	db	99
   215   003A83  32                 	db	50
   216   003A84  64                 	db	100
   217   003A85  33                 	db	51
   218   003A86  00                 	db	0
   219                           
   220                           ;initializer for transmitData@F23517
   221   003A87  41                 	db	65
   222   003A88  54                 	db	84
   223   003A89  2B                 	db	43
   224   003A8A  48                 	db	72
   225   003A8B  54                 	db	84
   226   003A8C  54                 	db	84
   227   003A8D  50                 	db	80
   228   003A8E  50                 	db	80
   229   003A8F  41                 	db	65
   230   003A90  52                 	db	82
   231   003A91  41                 	db	65
   232   003A92  3D                 	db	61
   233   003A93  22                 	db	34
   234   003A94  55                 	db	85
   235   003A95  52                 	db	82
   236   003A96  4C                 	db	76
   237   003A97  22                 	db	34
   238   003A98  2C                 	db	44
   239   003A99  00                 	db	0
   240                           
   241                           ;initializer for transmitData@F23521
   242   003A9A  41                 	db	65
   243   003A9B  54                 	db	84
   244   003A9C  2B                 	db	43
   245   003A9D  48                 	db	72
   246   003A9E  54                 	db	84
   247   003A9F  54                 	db	84
   248   003AA0  50                 	db	80
   249   003AA1  41                 	db	65
   250   003AA2  43                 	db	67
   251   003AA3  54                 	db	84
   252   003AA4  49                 	db	73
   253   003AA5  4F                 	db	79
   254   003AA6  4E                 	db	78
   255   003AA7  3D                 	db	61
   256   003AA8  31                 	db	49
   257   003AA9  00                 	db	0
   258                           
   259                           ;initializer for transmitData@F23519
   260   003AAA  41                 	db	65
   261   003AAB  54                 	db	84
   262   003AAC  2B                 	db	43
   263   003AAD  48                 	db	72
   264   003AAE  54                 	db	84
   265   003AAF  54                 	db	84
   266   003AB0  50                 	db	80
   267   003AB1  44                 	db	68
   268   003AB2  41                 	db	65
   269   003AB3  54                 	db	84
   270   003AB4  41                 	db	65
   271   003AB5  3D                 	db	61
   272   003AB6  00                 	db	0
   273                           
   274                           ;initializer for _dataList
   275   003AB7  0000               	dw	0
   276   003AB9  0007               	dw	7
   277   003ABB  0000               	dw	0
   278   003ABD  0001               	dw	1
   279   003ABF  0008               	dw	8
   280   003AC1  0000               	dw	0
   281   003AC3  0002               	dw	2
   282   003AC5  0009               	dw	9
   283   003AC7  0000               	dw	0
   284                           
   285                           	psect	smallconst
   286   003700                     __psmallconst:
   287                           	callstack 0
   288   003700  00                 	db	0
   289   003701  00                 	db	0
   290   003702  01                 	db	1
   291   003703  02                 	db	2
   292   003704  03                 	db	3
   293   003705  04                 	db	4
   294   003706  05                 	db	5
   295   003707  06                 	db	6
   296   003708  07                 	db	7
   297   003709  08                 	db	8
   298   00370A                     __end_of_DLC_BYTES:
   299                           	callstack 0
   300   00370A                     _spi1_configuration:
   301                           	callstack 0
   302   00370A  02                 	db	2
   303   00370B  40                 	db	64
   304   00370C  00                 	db	0
   305   00370D  02                 	db	2
   306   00370E  00                 	db	0
   307   00370F                     __end_of_spi1_configuration:
   308                           	callstack 0
   309   00370F  50                 	db	80
   310   003710  01                 	db	1
   311   003711                     __end_of_FIFO:
   312                           	callstack 0
   313   000000                     _TRISD	set	1225
   314   000000                     _TRISC	set	1224
   315   000000                     _TRISB	set	1223
   316   000000                     _LATC	set	1216
   317   000000                     _LATB	set	1215
   318   000000                     _C1CONTbits	set	259
   319   000000                     _C1CONU	set	258
   320   000000                     _OSCTUNE	set	176
   321   000000                     _OSCFRQ	set	177
   322   000000                     _OSCEN	set	179
   323   000000                     _SPI1CON0bits	set	132
   324   000000                     _C1CONUbits	set	258
   325   000000                     _C1CONH	set	257
   326   000000                     _TRISCbits	set	1224
   327   000000                     _PMD0	set	96
   328   000000                     _OSCCON1	set	173
   329   000000                     _OSCCON3	set	175
   330   000000                     _C1CONL	set	256
   331   000000                     _C1CONHbits	set	257
   332   000000                     _C1NBTCFGL	set	260
   333   000000                     _PIE3bits	set	1185
   334   000000                     _INTCON0bits	set	1238
   335   000000                     _C1TXQCONL	set	336
   336   000000                     _SPI1RXB	set	128
   337   000000                     _SPI1TXB	set	129
   338   000000                     _SPI1TCNTL	set	130
   339   000000                     _SPI1CON0	set	132
   340   000000                     _PMD8	set	104
   341   000000                     _PMD7	set	103
   342   000000                     _PMD6	set	102
   343   000000                     _PMD5	set	101
   344   000000                     _PMD4	set	100
   345   000000                     _PMD3	set	99
   346   000000                     _PMD2	set	98
   347   000000                     _PMD1	set	97
   348   000000                     _PIR3bits	set	1201
   349   000000                     _LATA	set	1214
   350   000000                     _LATD	set	1217
   351   000000                     _LATE	set	1218
   352   000000                     _RC3PPS	set	532
   353   000000                     _SPI1SCKPPS	set	618
   354   000000                     _ANSELA	set	1024
   355   000000                     _ANSELB	set	1032
   356   000000                     _ANSELC	set	1040
   357   000000                     _ANSELD	set	1048
   358   000000                     _C1FIFOBA	set	332
   359   000000                     _C1INTHbits	set	285
   360   000000                     _C1NBTCFGT	set	263
   361   000000                     _C1NBTCFGU	set	262
   362   000000                     _C1NBTCFGH	set	261
   363   000000                     _C1INTTbits	set	287
   364   000000                     _C1TRECUbits	set	310
   365   000000                     _TRISA	set	1222
   366   000000                     _TRISE	set	1226
   367   000000                     _PORTB	set	1231
   368   000000                     _INLVLD	set	1052
   369   000000                     _SLRCOND	set	1051
   370   000000                     _ODCOND	set	1050
   371   000000                     _WPUD	set	1049
   372   000000                     _ANSELE	set	1056
   373   000000                     _INLVLC	set	1044
   374   000000                     _SLRCONC	set	1043
   375   000000                     _ODCONC	set	1042
   376   000000                     _WPUC	set	1041
   377   000000                     _INLVLB	set	1036
   378   000000                     _SLRCONB	set	1035
   379   000000                     _ODCONB	set	1034
   380   000000                     _WPUB	set	1033
   381   000000                     _INLVLE	set	1060
   382   000000                     _SLRCONE	set	1059
   383   000000                     _ODCONE	set	1058
   384   000000                     _WPUE	set	1057
   385   000000                     _INLVLA	set	1028
   386   000000                     _SLRCONA	set	1027
   387   000000                     _ODCONA	set	1026
   388   000000                     _WPUA	set	1025
   389   000000                     _U5BRG	set	762
   390   000000                     _U5TXB	set	751
   391   000000                     _U5CON0	set	759
   392   000000                     _SPI1SDIPPS	set	619
   393   000000                     _SPI1BAUD	set	137
   394   000000                     _SPI1CLK	set	140
   395   000000                     _SPI1CON2	set	134
   396   000000                     _SPI1CON1	set	133
   397   000000                     _U5FIFO	set	764
   398   000000                     _U5CON1	set	760
   399   003711                     STR_1:
   400   003711  41                 	db	65	;'A'
   401   003712  54                 	db	84	;'T'
   402   003713  2B                 	db	43
   403   003714  43                 	db	67	;'C'
   404   003715  50                 	db	80	;'P'
   405   003716  49                 	db	73	;'I'
   406   003717  4E                 	db	78	;'N'
   407   003718  3D                 	db	61	;'='
   408   003719  3F                 	db	63	;'?'
   409   00371A  00                 	db	0
   410   00371B  49                 	db	73	;'I'
   411   00371C  4E                 	db	78	;'N'
   412   00371D  46                 	db	70	;'F'
   413   00371E  49                 	db	73	;'I'
   414   00371F  4E                 	db	78	;'N'
   415   003720  49                 	db	73	;'I'
   416   003721  54                 	db	84	;'T'
   417   003722  59                 	db	89	;'Y'
   418   003723  00                 	db	0
   419   003724                     STR_3:
   420   003724  69                 	db	105	;'i'
   421   003725  6E                 	db	110	;'n'
   422   003726  66                 	db	102	;'f'
   423   003727  69                 	db	105	;'i'
   424   003728  6E                 	db	110	;'n'
   425   003729  69                 	db	105	;'i'
   426   00372A  74                 	db	116	;'t'
   427   00372B  79                 	db	121	;'y'
   428   00372C  00                 	db	0
   429   00372D  52                 	db	82	;'R'
   430   00372E  45                 	db	69	;'E'
   431   00372F  41                 	db	65	;'A'
   432   003730  44                 	db	68	;'D'
   433   003731  59                 	db	89	;'Y'
   434   003732  00                 	db	0
   435   003733  4E                 	db	78	;'N'
   436   003734  41                 	db	65	;'A'
   437   003735  4E                 	db	78	;'N'
   438   003736  00                 	db	0
   439   003737                     STR_5:
   440   003737  69                 	db	105	;'i'
   441   003738  6E                 	db	110	;'n'
   442   003739  66                 	db	102	;'f'
   443   00373A  00                 	db	0
   444   00373B                     STR_8:
   445   00373B  6E                 	db	110	;'n'
   446   00373C  61                 	db	97	;'a'
   447   00373D  6E                 	db	110	;'n'
   448   00373E  00                 	db	0
   449   00373F  00                 	db	0	; dummy byte at the end
   450   000000                     
   451                           ; #config settings
   452                           
   453                           	psect	cinit
   454   0039B4                     __pcinit:
   455                           	callstack 0
   456   0039B4                     start_initialization:
   457                           	callstack 0
   458   0039B4                     __initialization:
   459                           	callstack 0
   460                           
   461                           ; Initialize objects allocated to BANK6 (137 bytes)
   462                           ; load TBLPTR registers with __pidataBANK6
   463   0039B4  0E40               	movlw	low __pidataBANK6
   464   0039B6  6EF6               	movwf	tblptrl,c
   465   0039B8  0E3A               	movlw	high __pidataBANK6
   466   0039BA  6EF7               	movwf	tblptrh,c
   467   0039BC  0E00               	movlw	low (__pidataBANK6 shr (0+16))
   468   0039BE  6EF8               	movwf	tblptru,c
   469   0039C0  EE01  F200         	lfsr	0,__pdataBANK6
   470   0039C4  EE10 F089          	lfsr	1,137
   471   0039C8                     copy_data0:
   472   0039C8  0009               	tblrd		*+
   473   0039CA  C4F5 F4EE          	movff	tablat,postinc0
   474   0039CE  50E5               	movf	postdec1,w,c
   475   0039D0  50E1               	movf	fsr1l,w,c
   476   0039D2  E1FA               	bnz	copy_data0
   477                           
   478                           ; Initialize objects allocated to BANK5 (12 bytes)
   479                           ; load TBLPTR registers with __pidataBANK5
   480   0039D4  0EA6               	movlw	low __pidataBANK5
   481   0039D6  6EF6               	movwf	tblptrl,c
   482   0039D8  0E3B               	movlw	high __pidataBANK5
   483   0039DA  6EF7               	movwf	tblptrh,c
   484   0039DC  0E00               	movlw	low (__pidataBANK5 shr (0+16))
   485   0039DE  6EF8               	movwf	tblptru,c
   486   0039E0  EE01  F1EF         	lfsr	0,__pdataBANK5
   487   0039E4  EE10 F00C          	lfsr	1,12
   488   0039E8                     copy_data1:
   489   0039E8  0009               	tblrd		*+
   490   0039EA  C4F5 F4EE          	movff	tablat,postinc0
   491   0039EE  50E5               	movf	postdec1,w,c
   492   0039F0  50E1               	movf	fsr1l,w,c
   493   0039F2  E1FA               	bnz	copy_data1
   494                           
   495                           ; Initialize objects allocated to COMRAM (42 bytes)
   496                           ; load TBLPTR registers with __pidataCOMRAM
   497   0039F4  0E2C               	movlw	low __pidataCOMRAM
   498   0039F6  6EF6               	movwf	tblptrl,c
   499   0039F8  0E3B               	movlw	high __pidataCOMRAM
   500   0039FA  6EF7               	movwf	tblptrh,c
   501   0039FC  0E00               	movlw	low (__pidataCOMRAM shr (0+16))
   502   0039FE  6EF8               	movwf	tblptru,c
   503   003A00  EE01  F101         	lfsr	0,__pdataCOMRAM
   504   003A04  EE10 F02A          	lfsr	1,42
   505   003A08                     copy_data2:
   506   003A08  0009               	tblrd		*+
   507   003A0A  C4F5 F4EE          	movff	tablat,postinc0
   508   003A0E  50E5               	movf	postdec1,w,c
   509   003A10  50E1               	movf	fsr1l,w,c
   510   003A12  E1FA               	bnz	copy_data2
   511                           
   512                           ; Clear objects allocated to BANK6 (11 bytes)
   513   003A14  EE01  F289         	lfsr	0,__pbssBANK6
   514   003A18  0E0B               	movlw	11
   515   003A1A                     clear_0:
   516   003A1A  6AEE               	clrf	postinc0,c
   517   003A1C  06E8               	decf	wreg,f,c
   518   003A1E  E1FD               	bnz	clear_0
   519                           
   520                           ; Clear objects allocated to COMRAM (12 bytes)
   521   003A20  EE01  F14D         	lfsr	0,__pbssCOMRAM
   522   003A24  0E0C               	movlw	12
   523   003A26                     clear_1:
   524   003A26  6AEE               	clrf	postinc0,c
   525   003A28  06E8               	decf	wreg,f,c
   526   003A2A  E1FD               	bnz	clear_1
   527                           
   528                           ;
   529                           ; Setup IVTBASE
   530                           ;
   531   003A2C  0104               	movlb	4
   532   003A2E  0E08               	movlw	(ivt0x8_base shr 0)& (0+255)
   533   003A30  6F5D               	movwf	93,b
   534   003A32  0E00               	movlw	(ivt0x8_base shr (0+8))& (0+255)
   535   003A34  6F5E               	movwf	94,b
   536   003A36  0E00               	movlw	(ivt0x8_base shr (0+16))& (0+255)
   537   003A38  6F5F               	movwf	95,b
   538   003A3A                     end_of_initialization:
   539                           	callstack 0
   540   003A3A                     __end_of__initialization:
   541                           	callstack 0
   542   003A3A  0100               	movlb	0
   543   003A3C  EF12  F01C         	goto	_main	;jump to C main() function
   544                           
   545                           	psect	bssCOMRAM
   546   00054D                     __pbssCOMRAM:
   547                           	callstack 0
   548   00054D                     _SPI1_TxInterruptHandler:
   549                           	callstack 0
   550   00054D                     	ds	3
   551   000550                     _SPI1_RxInterruptHandler:
   552                           	callstack 0
   553   000550                     	ds	3
   554   000553                     _SPI1_InterruptHandler:
   555                           	callstack 0
   556   000553                     	ds	3
   557   000556                     _errno:
   558                           	callstack 0
   559   000556                     	ds	2
   560   000558                     _State:
   561                           	callstack 0
   562   000558                     	ds	1
   563                           
   564                           	psect	dataCOMRAM
   565   000501                     __pdataCOMRAM:
   566                           	callstack 0
   567   000501                     transmitData@F23515:
   568                           	callstack 0
   569   000501                     	ds	12
   570   00050D                     updateCoordinates@F23505:
   571                           	callstack 0
   572   00050D                     	ds	11
   573   000518                     read@F23458:
   574                           	callstack 0
   575   000518                     	ds	11
   576   000523                     read@F23460:
   577                           	callstack 0
   578   000523                     	ds	8
   579                           
   580                           	psect	dataBANK5
   581   0005EF                     __pdataBANK5:
   582                           	callstack 0
   583   0005EF                     transmitData@F23523:
   584                           	callstack 0
   585   0005EF                     	ds	12
   586                           
   587                           	psect	bssBANK6
   588   000689                     __pbssBANK6:
   589                           	callstack 0
   590   000689                     _sim:
   591                           	callstack 0
   592   000689                     	ds	11
   593                           
   594                           	psect	dataBANK6
   595   000600                     __pdataBANK6:
   596                           	callstack 0
   597   000600                     transmitData@F23511:
   598                           	callstack 0
   599   000600                     	ds	38
   600   000626                     transmitData@F23513:
   601                           	callstack 0
   602   000626                     	ds	33
   603   000647                     transmitData@F23517:
   604                           	callstack 0
   605   000647                     	ds	19
   606   00065A                     transmitData@F23521:
   607                           	callstack 0
   608   00065A                     	ds	16
   609   00066A                     transmitData@F23519:
   610                           	callstack 0
   611   00066A                     	ds	13
   612   000677                     _dataList:
   613                           	callstack 0
   614   000677                     	ds	18
   615                           
   616                           	psect	cstackBANK5
   617   000560                     __pcstackBANK5:
   618                           	callstack 0
   619   000560                     transmitData@token:
   620                           	callstack 0
   621                           
   622                           ; 33 bytes @ 0x0
   623   000560                     	ds	33
   624   000581                     transmitData@url:
   625                           	callstack 0
   626                           
   627                           ; 38 bytes @ 0x21
   628   000581                     	ds	38
   629   0005A7                     transmitData@term:
   630                           	callstack 0
   631                           
   632                           ; 12 bytes @ 0x47
   633   0005A7                     	ds	12
   634   0005B3                     transmitData@para:
   635                           	callstack 0
   636                           
   637                           ; 19 bytes @ 0x53
   638   0005B3                     	ds	19
   639   0005C6                     transmitData@send:
   640                           	callstack 0
   641                           
   642                           ; 16 bytes @ 0x66
   643   0005C6                     	ds	16
   644   0005D6                     transmitData@data:
   645                           	callstack 0
   646                           
   647                           ; 13 bytes @ 0x76
   648   0005D6                     	ds	13
   649   0005E3                     transmitData@init:
   650                           	callstack 0
   651                           
   652                           ; 12 bytes @ 0x83
   653   0005E3                     	ds	12
   654                           
   655                           	psect	cstackCOMRAM
   656   00052B                     __pcstackCOMRAM:
   657                           	callstack 0
   658   00052B                     ??_INTERRUPT_InterruptManager:
   659   00052B                     
   660                           ; 1 bytes @ 0x0
   661   00052B                     	ds	2
   662   00052D                     transmit@byte:
   663                           	callstack 0
   664                           
   665                           ; 1 bytes @ 0x2
   666   00052D                     	ds	1
   667   00052E                     print@string:
   668                           	callstack 0
   669                           
   670                           ; 2 bytes @ 0x3
   671   00052E                     	ds	2
   672   000530                     print@length:
   673                           	callstack 0
   674                           
   675                           ; 2 bytes @ 0x5
   676   000530                     	ds	2
   677   000532                     ??_print:
   678                           
   679                           ; 1 bytes @ 0x7
   680   000532                     	ds	2
   681   000534                     print@i:
   682                           	callstack 0
   683                           
   684                           ; 2 bytes @ 0x9
   685   000534                     	ds	2
   686   000536                     printLn@string:
   687                           	callstack 0
   688                           
   689                           ; 2 bytes @ 0xB
   690   000536                     	ds	2
   691   000538                     printLn@length:
   692                           	callstack 0
   693                           
   694                           ; 2 bytes @ 0xD
   695   000538                     	ds	2
   696   00053A                     transmitData@sim:
   697                           	callstack 0
   698                           
   699                           ; 2 bytes @ 0xF
   700   00053A                     	ds	2
   701   00053C                     transmitData@CanData:
   702                           	callstack 0
   703                           
   704                           ; 2 bytes @ 0x11
   705   00053C                     	ds	2
   706   00053E                     transmitData@dataListLength:
   707                           	callstack 0
   708                           
   709                           ; 2 bytes @ 0x13
   710   00053E                     	ds	2
   711   000540                     ??_main:
   712                           
   713                           ; 1 bytes @ 0x15
   714   000540                     	ds	2
   715   000542                     main@sim:
   716                           	callstack 0
   717                           
   718                           ; 11 bytes @ 0x17
   719   000542                     	ds	11
   720                           
   721 ;;
   722 ;;Main: autosize = 0, tempsize = 2, incstack = 0, save=0
   723 ;;
   724 ;; *************** function _main *****************
   725 ;; Defined at:
   726 ;;		line 61 in file "main.c"
   727 ;; Parameters:    Size  Location     Type
   728 ;;		None
   729 ;; Auto vars:     Size  Location     Type
   730 ;;  sim            11   23[COMRAM] struct SIM
   731 ;; Return value:  Size  Location     Type
   732 ;;                  1    wreg      void 
   733 ;; Registers used:
   734 ;;		wreg, fsr0l, fsr0h, fsr1l, fsr1h, fsr2l, fsr2h, status,2, status,0, tblptrl, tblptrh, tblptru, cstack
   735 ;; Tracked objects:
   736 ;;		On entry : 0/0
   737 ;;		On exit  : 0/0
   738 ;;		Unchanged: 0/0
   739 ;; Data sizes:     COMRAM   BANK5   BANK6   BANK7   BANK8   BANK9  BANK10  BANK11  BANK12  BANK13  BANK14  BANK15  BANK1
      +6  BANK17  BANK18  BANK19  BANK20  BANK21  BANK22  BANK23  BANK24  BANK25  BANK26  BANK27  BANK28  BANK29  BANK30  BANK3
      +1  BANK32  BANK33  BANK34  BANK35  BANK36  BANK37  BANK38  BANK39  BANK40  BANK41  BANK42  BANK43  BANK44  BANK45  BANK4
      +6  BANK47  BANK48  BANK49  BANK50  BANK51  BANK52  BANK53  BANK54
   740 ;;      Params:         0       0       0       0       0       0       0       0       0       0       0       0       
      +0       0       0       0       0       0       0       0       0       0       0       0       0       0       0       
      +0       0       0       0       0       0       0       0       0       0       0       0       0       0       0       
      +0       0       0       0       0       0       0       0       0
   741 ;;      Locals:        11       0       0       0       0       0       0       0       0       0       0       0       
      +0       0       0       0       0       0       0       0       0       0       0       0       0       0       0       
      +0       0       0       0       0       0       0       0       0       0       0       0       0       0       0       
      +0       0       0       0       0       0       0       0       0
   742 ;;      Temps:          2       0       0       0       0       0       0       0       0       0       0       0       
      +0       0       0       0       0       0       0       0       0       0       0       0       0       0       0       
      +0       0       0       0       0       0       0       0       0       0       0       0       0       0       0       
      +0       0       0       0       0       0       0       0       0
   743 ;;      Totals:        13       0       0       0       0       0       0       0       0       0       0       0       
      +0       0       0       0       0       0       0       0       0       0       0       0       0       0       0       
      +0       0       0       0       0       0       0       0       0       0       0       0       0       0       0       
      +0       0       0       0       0       0       0       0       0
   744 ;;Total ram usage:       13 bytes
   745 ;; Hardware stack levels required when called: 6
   746 ;; This function calls:
   747 ;;		_setupPic
   748 ;;		_transmitData
   749 ;; This function is called by:
   750 ;;		Startup code after reset
   751 ;; This function uses a non-reentrant model
   752 ;;
   753                           
   754                           	psect	text0
   755   003824                     __ptext0:
   756                           	callstack 0
   757   003824                     _main:
   758                           	callstack 121
   759   003824                     
   760                           ;main.c: 63:     State = setup;
   761   003824  0E00               	movlw	0
   762   003826  6E58               	movwf	_State^(0+1280),c
   763   003828                     
   764                           ;main.c: 64:     OSCFRQ |= 0x07;
   765   003828  0E07               	movlw	7
   766   00382A  0100               	movlb	0	; () banked
   767   00382C  13B1               	iorwf	177,f,b	;volatile
   768   00382E                     
   769                           ; BSR set to: 0
   770                           ;main.c: 66:     OSCCON1 = 0b01100001;
   771   00382E  0E61               	movlw	97
   772   003830  6FAD               	movwf	173,b	;volatile
   773   003832                     
   774                           ; BSR set to: 0
   775                           ;main.c: 69:     struct SIM sim;;main.c: 70:     transmitData(&sim, &dataList, 3);
   776   003832  0E42               	movlw	low main@sim
   777   003834  6E3A               	movwf	transmitData@sim^(0+1280),c
   778   003836  0E05               	movlw	high main@sim
   779   003838  6E3B               	movwf	(transmitData@sim+1)^(0+1280),c
   780   00383A  0E77               	movlw	low _dataList
   781   00383C  6E3C               	movwf	transmitData@CanData^(0+1280),c
   782   00383E  0E06               	movlw	high _dataList
   783   003840  6E3D               	movwf	(transmitData@CanData+1)^(0+1280),c
   784   003842  0E00               	movlw	0
   785   003844  6E3F               	movwf	(transmitData@dataListLength+1)^(0+1280),c
   786   003846  0E03               	movlw	3
   787   003848  6E3E               	movwf	transmitData@dataListLength^(0+1280),c
   788   00384A  ECA0  F01B         	call	_transmitData	;wreg free
   789   00384E                     
   790                           ;main.c: 71:     setupPic();
   791   00384E  ECD9  F01D         	call	_setupPic	;wreg free
   792   003852                     
   793                           ;main.c: 73:     PORTB = 0x00;
   794   003852  0E00               	movlw	0
   795   003854  6ECF               	movwf	207,c	;volatile
   796   003856                     
   797                           ;main.c: 74:     LATB = 0x00;
   798   003856  0E00               	movlw	0
   799   003858  6EBF               	movwf	191,c	;volatile
   800   00385A                     
   801                           ;main.c: 75:     ANSELB = 0x00;
   802   00385A  0E00               	movlw	0
   803   00385C  0104               	movlb	4	; () banked
   804   00385E  6F08               	movwf	8,b	;volatile
   805   003860                     
   806                           ; BSR set to: 4
   807                           ;main.c: 76:     TRISB = 0x00;
   808   003860  0E00               	movlw	0
   809   003862  6EC7               	movwf	199,c	;volatile
   810   003864  EF5B  F01C         	goto	l1992
   811   003868                     l500:
   812                           
   813                           ;main.c: 81:                 (INTCON0bits.GIE = 1);
   814   003868  8ED6               	bsf	214,7,c	;volatile
   815   00386A                     
   816                           ;main.c: 82:                 _delay((unsigned long)((5000)*(1000000/4000.0)));
   817   00386A  0E07               	movlw	7
   818   00386C  6E41               	movwf	(??_main+1)^(0+1280),c
   819   00386E  0E58               	movlw	88
   820   003870  6E40               	movwf	??_main^(0+1280),c
   821   003872  0E5A               	movlw	90
   822   003874                     u777:
   823   003874  2EE8               	decfsz	wreg,f,c
   824   003876  D7FE               	bra	u777
   825   003878  2E40               	decfsz	??_main^(0+1280),f,c
   826   00387A  D7FC               	bra	u777
   827   00387C  2E41               	decfsz	(??_main+1)^(0+1280),f,c
   828   00387E  D7FA               	bra	u777
   829   003880                     
   830                           ;main.c: 83:                 State = getGNSS;
   831   003880  0E02               	movlw	2
   832   003882  6E58               	movwf	_State^(0+1280),c
   833                           
   834                           ;main.c: 84:                 break;
   835   003884  EF74  F01C         	goto	l1994
   836   003888                     l502:
   837                           
   838                           ;main.c: 86:                 (INTCON0bits.GIE = 0);
   839   003888  9ED6               	bcf	214,7,c	;volatile
   840   00388A                     
   841                           ;main.c: 88:                 State = sendData;
   842   00388A  0E03               	movlw	3
   843   00388C  6E58               	movwf	_State^(0+1280),c
   844                           
   845                           ;main.c: 89:                 break;
   846   00388E  EF74  F01C         	goto	l1994
   847   003892                     l1986:
   848                           
   849                           ;main.c: 91:                 transmitData(&sim, &dataList, 3);
   850   003892  0E42               	movlw	low main@sim
   851   003894  6E3A               	movwf	transmitData@sim^(0+1280),c
   852   003896  0E05               	movlw	high main@sim
   853   003898  6E3B               	movwf	(transmitData@sim+1)^(0+1280),c
   854   00389A  0E77               	movlw	low _dataList
   855   00389C  6E3C               	movwf	transmitData@CanData^(0+1280),c
   856   00389E  0E06               	movlw	high _dataList
   857   0038A0  6E3D               	movwf	(transmitData@CanData+1)^(0+1280),c
   858   0038A2  0E00               	movlw	0
   859   0038A4  6E3F               	movwf	(transmitData@dataListLength+1)^(0+1280),c
   860   0038A6  0E03               	movlw	3
   861   0038A8  6E3E               	movwf	transmitData@dataListLength^(0+1280),c
   862   0038AA  ECA0  F01B         	call	_transmitData	;wreg free
   863   0038AE                     
   864                           ;main.c: 92:                 State = wait;
   865   0038AE  0E01               	movlw	1
   866   0038B0  6E58               	movwf	_State^(0+1280),c
   867                           
   868                           ;main.c: 93:                 break;
   869   0038B2  EF74  F01C         	goto	l1994
   870   0038B6                     l1992:
   871   0038B6  5058               	movf	_State^(0+1280),w,c
   872   0038B8  6E40               	movwf	??_main^(0+1280),c
   873   0038BA  6A41               	clrf	(??_main+1)^(0+1280),c
   874                           
   875                           ; Switch on 2 bytes has been partitioned into a top level switch of size 1, and 1 sub-sw
      +                          itches
   876                           ; Switch size 1, requested type "simple"
   877                           ; Number of cases is 1, Range of values is 0 to 0
   878                           ; switch strategies available:
   879                           ; Name         Instructions Cycles
   880                           ; simple_byte            4     3 (average)
   881                           ;	Chosen strategy is simple_byte
   882   0038BC  5041               	movf	(??_main+1)^(0+1280),w,c
   883   0038BE  0A00               	xorlw	0	; case 0
   884   0038C0  B4D8               	btfsc	status,2,c
   885   0038C2  EF65  F01C         	goto	l2032
   886   0038C6  EF74  F01C         	goto	l1994
   887   0038CA                     l2032:
   888                           
   889                           ; Switch size 1, requested type "simple"
   890                           ; Number of cases is 3, Range of values is 1 to 3
   891                           ; switch strategies available:
   892                           ; Name         Instructions Cycles
   893                           ; simple_byte           10     6 (average)
   894                           ;	Chosen strategy is simple_byte
   895   0038CA  5040               	movf	??_main^(0+1280),w,c
   896   0038CC  0A01               	xorlw	1	; case 1
   897   0038CE  B4D8               	btfsc	status,2,c
   898   0038D0  EF34  F01C         	goto	l500
   899   0038D4  0A03               	xorlw	3	; case 2
   900   0038D6  B4D8               	btfsc	status,2,c
   901   0038D8  EF44  F01C         	goto	l502
   902   0038DC  0A01               	xorlw	1	; case 3
   903   0038DE  B4D8               	btfsc	status,2,c
   904   0038E0  EF49  F01C         	goto	l1986
   905   0038E4  EF74  F01C         	goto	l1994
   906   0038E8                     l1994:
   907                           
   908                           ;main.c: 95:         TRISB ^= 0b00100000;
   909   0038E8  0E20               	movlw	32
   910   0038EA  1AC7               	xorwf	199,f,c	;volatile
   911   0038EC  EF5B  F01C         	goto	l1992
   912   0038F0  EF0D  F000         	goto	start
   913   0038F4                     __end_of_main:
   914                           	callstack 0
   915                           
   916 ;; *************** function _transmitData *****************
   917 ;; Defined at:
   918 ;;		line 115 in file "./sim.h"
   919 ;; Parameters:    Size  Location     Type
   920 ;;  sim             2   15[COMRAM] PTR struct SIM
   921 ;;		 -> main@sim(11), 
   922 ;;  CanData         2   17[COMRAM] PTR struct CanData
   923 ;;		 -> dataList(18), 
   924 ;;  dataListLeng    2   19[COMRAM] int 
   925 ;; Auto vars:     Size  Location     Type
   926 ;;  url            38   33[BANK5 ] unsigned char [38]
   927 ;;  token          33    0[BANK5 ] unsigned char [33]
   928 ;;  para           19   83[BANK5 ] unsigned char [19]
   929 ;;  send           16  102[BANK5 ] unsigned char [16]
   930 ;;  data           13  118[BANK5 ] unsigned char [13]
   931 ;;  init           12  131[BANK5 ] unsigned char [12]
   932 ;;  term           12   71[BANK5 ] unsigned char [12]
   933 ;; Return value:  Size  Location     Type
   934 ;;                  1    wreg      void 
   935 ;; Registers used:
   936 ;;		wreg, fsr0l, fsr0h, fsr1l, fsr1h, fsr2l, fsr2h, status,2, status,0, tblptrl, tblptrh, tblptru, cstack
   937 ;; Tracked objects:
   938 ;;		On entry : 0/0
   939 ;;		On exit  : 0/0
   940 ;;		Unchanged: 0/0
   941 ;; Data sizes:     COMRAM   BANK5   BANK6   BANK7   BANK8   BANK9  BANK10  BANK11  BANK12  BANK13  BANK14  BANK15  BANK1
      +6  BANK17  BANK18  BANK19  BANK20  BANK21  BANK22  BANK23  BANK24  BANK25  BANK26  BANK27  BANK28  BANK29  BANK30  BANK3
      +1  BANK32  BANK33  BANK34  BANK35  BANK36  BANK37  BANK38  BANK39  BANK40  BANK41  BANK42  BANK43  BANK44  BANK45  BANK4
      +6  BANK47  BANK48  BANK49  BANK50  BANK51  BANK52  BANK53  BANK54
   942 ;;      Params:         6       0       0       0       0       0       0       0       0       0       0       0       
      +0       0       0       0       0       0       0       0       0       0       0       0       0       0       0       
      +0       0       0       0       0       0       0       0       0       0       0       0       0       0       0       
      +0       0       0       0       0       0       0       0       0
   943 ;;      Locals:         0     143       0       0       0       0       0       0       0       0       0       0       
      +0       0       0       0       0       0       0       0       0       0       0       0       0       0       0       
      +0       0       0       0       0       0       0       0       0       0       0       0       0       0       0       
      +0       0       0       0       0       0       0       0       0
   944 ;;      Temps:          0       0       0       0       0       0       0       0       0       0       0       0       
      +0       0       0       0       0       0       0       0       0       0       0       0       0       0       0       
      +0       0       0       0       0       0       0       0       0       0       0       0       0       0       0       
      +0       0       0       0       0       0       0       0       0
   945 ;;      Totals:         6     143       0       0       0       0       0       0       0       0       0       0       
      +0       0       0       0       0       0       0       0       0       0       0       0       0       0       0       
      +0       0       0       0       0       0       0       0       0       0       0       0       0       0       0       
      +0       0       0       0       0       0       0       0       0
   946 ;;Total ram usage:      149 bytes
   947 ;; Hardware stack levels used: 1
   948 ;; Hardware stack levels required when called: 5
   949 ;; This function calls:
   950 ;;		_print
   951 ;;		_printLn
   952 ;; This function is called by:
   953 ;;		_main
   954 ;; This function uses a non-reentrant model
   955 ;;
   956                           
   957                           	psect	text1
   958   003740                     __ptext1:
   959                           	callstack 0
   960   003740                     _transmitData:
   961                           	callstack 121
   962   003740                     
   963                           ;./sim.h: 117:     char url[] = "basically-clean-alpaca.ngrok-free.app";
   964   003740  EE21  F200         	lfsr	2,transmitData@F23511
   965   003744  EE11  F181         	lfsr	1,transmitData@url
   966   003748  0E25               	movlw	37
   967   00374A                     u651:
   968   00374A  C4DB F4E3          	movff	plusw2,plusw1
   969   00374E  06E8               	decf	wreg,f,c
   970   003750  E2FC               	bc	u651
   971                           
   972                           ;./sim.h: 118:     char token[] = "55f201a9df707c12d8012ba2b111c2d3";
   973   003752  EE21  F226         	lfsr	2,transmitData@F23513
   974   003756  EE11  F160         	lfsr	1,transmitData@token
   975   00375A  0E20               	movlw	32
   976   00375C                     u661:
   977   00375C  C4DB F4E3          	movff	plusw2,plusw1
   978   003760  06E8               	decf	wreg,f,c
   979   003762  E2FC               	bc	u661
   980                           
   981                           ;./sim.h: 120:     char init[] = "AT+HTTPINIT";
   982   003764  EE21  F101         	lfsr	2,transmitData@F23515
   983   003768  EE11  F1E3         	lfsr	1,transmitData@init
   984   00376C  0E0B               	movlw	11
   985   00376E                     u671:
   986   00376E  C4DB F4E3          	movff	plusw2,plusw1
   987   003772  06E8               	decf	wreg,f,c
   988   003774  E2FC               	bc	u671
   989                           
   990                           ;./sim.h: 121:     char para[] = "AT+HTTPPARA=\"URL\",";
   991   003776  EE21  F247         	lfsr	2,transmitData@F23517
   992   00377A  EE11  F1B3         	lfsr	1,transmitData@para
   993   00377E  0E12               	movlw	18
   994   003780                     u681:
   995   003780  C4DB F4E3          	movff	plusw2,plusw1
   996   003784  06E8               	decf	wreg,f,c
   997   003786  E2FC               	bc	u681
   998                           
   999                           ;./sim.h: 122:     char data[] = "AT+HTTPDATA=";
  1000   003788  EE21  F26A         	lfsr	2,transmitData@F23519
  1001   00378C  EE11  F1D6         	lfsr	1,transmitData@data
  1002   003790  0E0C               	movlw	12
  1003   003792                     u691:
  1004   003792  C4DB F4E3          	movff	plusw2,plusw1
  1005   003796  06E8               	decf	wreg,f,c
  1006   003798  E2FC               	bc	u691
  1007                           
  1008                           ;./sim.h: 123:     char send[] = "AT+HTTPACTION=1";
  1009   00379A  EE21  F25A         	lfsr	2,transmitData@F23521
  1010   00379E  EE11  F1C6         	lfsr	1,transmitData@send
  1011   0037A2  0E0F               	movlw	15
  1012   0037A4                     u701:
  1013   0037A4  C4DB F4E3          	movff	plusw2,plusw1
  1014   0037A8  06E8               	decf	wreg,f,c
  1015   0037AA  E2FC               	bc	u701
  1016                           
  1017                           ;./sim.h: 124:     char term[] = "AT+HTTPTERM";
  1018   0037AC  EE21  F1EF         	lfsr	2,transmitData@F23523
  1019   0037B0  EE11  F1A7         	lfsr	1,transmitData@term
  1020   0037B4  0E0B               	movlw	11
  1021   0037B6                     u711:
  1022   0037B6  C4DB F4E3          	movff	plusw2,plusw1
  1023   0037BA  06E8               	decf	wreg,f,c
  1024   0037BC  E2FC               	bc	u711
  1025   0037BE                     
  1026                           ;./sim.h: 126:     printLn(init, sizeof(init)/sizeof(char));
  1027   0037BE  0EE3               	movlw	low transmitData@init
  1028   0037C0  6E36               	movwf	printLn@string^(0+1280),c
  1029   0037C2  0E05               	movlw	high transmitData@init
  1030   0037C4  6E37               	movwf	(printLn@string+1)^(0+1280),c
  1031   0037C6  0E00               	movlw	0
  1032   0037C8  6E39               	movwf	(printLn@length+1)^(0+1280),c
  1033   0037CA  0E0C               	movlw	12
  1034   0037CC  6E38               	movwf	printLn@length^(0+1280),c
  1035   0037CE  ECAB  F01D         	call	_printLn	;wreg free
  1036   0037D2                     
  1037                           ;./sim.h: 127:     print(para, sizeof(para)/sizeof(char));
  1038   0037D2  0EB3               	movlw	low transmitData@para
  1039   0037D4  6E2E               	movwf	print@string^(0+1280),c
  1040   0037D6  0E05               	movlw	high transmitData@para
  1041   0037D8  6E2F               	movwf	(print@string+1)^(0+1280),c
  1042   0037DA  0E00               	movlw	0
  1043   0037DC  6E31               	movwf	(print@length+1)^(0+1280),c
  1044   0037DE  0E13               	movlw	19
  1045   0037E0  6E30               	movwf	print@length^(0+1280),c
  1046   0037E2  EC65  F01D         	call	_print	;wreg free
  1047   0037E6                     
  1048                           ;./sim.h: 128:     printLn(url, sizeof(url)/sizeof(char));
  1049   0037E6  0E81               	movlw	low transmitData@url
  1050   0037E8  6E36               	movwf	printLn@string^(0+1280),c
  1051   0037EA  0E05               	movlw	high transmitData@url
  1052   0037EC  6E37               	movwf	(printLn@string+1)^(0+1280),c
  1053   0037EE  0E00               	movlw	0
  1054   0037F0  6E39               	movwf	(printLn@length+1)^(0+1280),c
  1055   0037F2  0E26               	movlw	38
  1056   0037F4  6E38               	movwf	printLn@length^(0+1280),c
  1057   0037F6  ECAB  F01D         	call	_printLn	;wreg free
  1058   0037FA                     
  1059                           ;./sim.h: 129:     print(data, sizeof(data)/sizeof(char));
  1060   0037FA  0ED6               	movlw	low transmitData@data
  1061   0037FC  6E2E               	movwf	print@string^(0+1280),c
  1062   0037FE  0E05               	movlw	high transmitData@data
  1063   003800  6E2F               	movwf	(print@string+1)^(0+1280),c
  1064   003802  0E00               	movlw	0
  1065   003804  6E31               	movwf	(print@length+1)^(0+1280),c
  1066   003806  0E0D               	movlw	13
  1067   003808  6E30               	movwf	print@length^(0+1280),c
  1068   00380A  EC65  F01D         	call	_print	;wreg free
  1069   00380E                     
  1070                           ;./sim.h: 131:     printLn(send, sizeof(send)/sizeof(char));
  1071   00380E  0EC6               	movlw	low transmitData@send
  1072   003810  6E36               	movwf	printLn@string^(0+1280),c
  1073   003812  0E05               	movlw	high transmitData@send
  1074   003814  6E37               	movwf	(printLn@string+1)^(0+1280),c
  1075   003816  0E00               	movlw	0
  1076   003818  6E39               	movwf	(printLn@length+1)^(0+1280),c
  1077   00381A  0E10               	movlw	16
  1078   00381C  6E38               	movwf	printLn@length^(0+1280),c
  1079   00381E  ECAB  F01D         	call	_printLn	;wreg free
  1080   003822  0012               	return		;funcret
  1081   003824                     __end_of_transmitData:
  1082                           	callstack 0
  1083                           
  1084 ;; *************** function _printLn *****************
  1085 ;; Defined at:
  1086 ;;		line 43 in file "./uart.h"
  1087 ;; Parameters:    Size  Location     Type
  1088 ;;  string          2   11[COMRAM] PTR unsigned char 
  1089 ;;		 -> STR_1(10), transmitData@send(16), transmitData@init(12), transmitData@url(38), 
  1090 ;;		 -> updateCoordinates@command(11), 
  1091 ;;  length          2   13[COMRAM] int 
  1092 ;; Auto vars:     Size  Location     Type
  1093 ;;		None
  1094 ;; Return value:  Size  Location     Type
  1095 ;;                  1    wreg      void 
  1096 ;; Registers used:
  1097 ;;		wreg, fsr0l, fsr0h, status,2, status,0, tblptrl, tblptrh, tblptru, cstack
  1098 ;; Tracked objects:
  1099 ;;		On entry : 0/0
  1100 ;;		On exit  : 0/0
  1101 ;;		Unchanged: 0/0
  1102 ;; Data sizes:     COMRAM   BANK5   BANK6   BANK7   BANK8   BANK9  BANK10  BANK11  BANK12  BANK13  BANK14  BANK15  BANK1
      +6  BANK17  BANK18  BANK19  BANK20  BANK21  BANK22  BANK23  BANK24  BANK25  BANK26  BANK27  BANK28  BANK29  BANK30  BANK3
      +1  BANK32  BANK33  BANK34  BANK35  BANK36  BANK37  BANK38  BANK39  BANK40  BANK41  BANK42  BANK43  BANK44  BANK45  BANK4
      +6  BANK47  BANK48  BANK49  BANK50  BANK51  BANK52  BANK53  BANK54
  1103 ;;      Params:         4       0       0       0       0       0       0       0       0       0       0       0       
      +0       0       0       0       0       0       0       0       0       0       0       0       0       0       0       
      +0       0       0       0       0       0       0       0       0       0       0       0       0       0       0       
      +0       0       0       0       0       0       0       0       0
  1104 ;;      Locals:         0       0       0       0       0       0       0       0       0       0       0       0       
      +0       0       0       0       0       0       0       0       0       0       0       0       0       0       0       
      +0       0       0       0       0       0       0       0       0       0       0       0       0       0       0       
      +0       0       0       0       0       0       0       0       0
  1105 ;;      Temps:          0       0       0       0       0       0       0       0       0       0       0       0       
      +0       0       0       0       0       0       0       0       0       0       0       0       0       0       0       
      +0       0       0       0       0       0       0       0       0       0       0       0       0       0       0       
      +0       0       0       0       0       0       0       0       0
  1106 ;;      Totals:         4       0       0       0       0       0       0       0       0       0       0       0       
      +0       0       0       0       0       0       0       0       0       0       0       0       0       0       0       
      +0       0       0       0       0       0       0       0       0       0       0       0       0       0       0       
      +0       0       0       0       0       0       0       0       0
  1107 ;;Total ram usage:        4 bytes
  1108 ;; Hardware stack levels used: 1
  1109 ;; Hardware stack levels required when called: 4
  1110 ;; This function calls:
  1111 ;;		_print
  1112 ;;		_transmit
  1113 ;; This function is called by:
  1114 ;;		_transmitData
  1115 ;;		_bufferCommand
  1116 ;; This function uses a non-reentrant model
  1117 ;;
  1118                           
  1119                           	psect	text2
  1120   003B56                     __ptext2:
  1121                           	callstack 0
  1122   003B56                     _printLn:
  1123                           	callstack 121
  1124   003B56                     
  1125                           ;./uart.h: 44:     print(string, length);
  1126   003B56  C536  F52E         	movff	printLn@string,print@string
  1127   003B5A  C537  F52F         	movff	printLn@string+1,print@string+1
  1128   003B5E  C538  F530         	movff	printLn@length,print@length
  1129   003B62  C539  F531         	movff	printLn@length+1,print@length+1
  1130   003B66  EC65  F01D         	call	_print	;wreg free
  1131   003B6A                     
  1132                           ;./uart.h: 45:     transmit('\n');
  1133   003B6A  0E0A               	movlw	10
  1134   003B6C  ECBC  F01D         	call	_transmit
  1135   003B70                     
  1136                           ;./uart.h: 46:     transmit('\r');
  1137   003B70  0E0D               	movlw	13
  1138   003B72  ECBC  F01D         	call	_transmit
  1139   003B76  0012               	return		;funcret
  1140   003B78                     __end_of_printLn:
  1141                           	callstack 0
  1142                           
  1143 ;; *************** function _print *****************
  1144 ;; Defined at:
  1145 ;;		line 37 in file "./uart.h"
  1146 ;; Parameters:    Size  Location     Type
  1147 ;;  string          2    3[COMRAM] PTR unsigned char 
  1148 ;;		 -> STR_1(10), transmitData@send(16), transmitData@data(13), transmitData@para(19), 
  1149 ;;		 -> transmitData@init(12), transmitData@url(38), updateCoordinates@response(128), updateCoordinates@command(11), 
  1150 ;;		 -> read@loop(8), read@hello(11), 
  1151 ;;  length          2    5[COMRAM] int 
  1152 ;; Auto vars:     Size  Location     Type
  1153 ;;  i               2    9[COMRAM] int 
  1154 ;; Return value:  Size  Location     Type
  1155 ;;                  1    wreg      void 
  1156 ;; Registers used:
  1157 ;;		wreg, fsr0l, fsr0h, status,2, status,0, tblptrl, tblptrh, tblptru, cstack
  1158 ;; Tracked objects:
  1159 ;;		On entry : 0/0
  1160 ;;		On exit  : 0/0
  1161 ;;		Unchanged: 0/0
  1162 ;; Data sizes:     COMRAM   BANK5   BANK6   BANK7   BANK8   BANK9  BANK10  BANK11  BANK12  BANK13  BANK14  BANK15  BANK1
      +6  BANK17  BANK18  BANK19  BANK20  BANK21  BANK22  BANK23  BANK24  BANK25  BANK26  BANK27  BANK28  BANK29  BANK30  BANK3
      +1  BANK32  BANK33  BANK34  BANK35  BANK36  BANK37  BANK38  BANK39  BANK40  BANK41  BANK42  BANK43  BANK44  BANK45  BANK4
      +6  BANK47  BANK48  BANK49  BANK50  BANK51  BANK52  BANK53  BANK54
  1163 ;;      Params:         4       0       0       0       0       0       0       0       0       0       0       0       
      +0       0       0       0       0       0       0       0       0       0       0       0       0       0       0       
      +0       0       0       0       0       0       0       0       0       0       0       0       0       0       0       
      +0       0       0       0       0       0       0       0       0
  1164 ;;      Locals:         2       0       0       0       0       0       0       0       0       0       0       0       
      +0       0       0       0       0       0       0       0       0       0       0       0       0       0       0       
      +0       0       0       0       0       0       0       0       0       0       0       0       0       0       0       
      +0       0       0       0       0       0       0       0       0
  1165 ;;      Temps:          2       0       0       0       0       0       0       0       0       0       0       0       
      +0       0       0       0       0       0       0       0       0       0       0       0       0       0       0       
      +0       0       0       0       0       0       0       0       0       0       0       0       0       0       0       
      +0       0       0       0       0       0       0       0       0
  1166 ;;      Totals:         8       0       0       0       0       0       0       0       0       0       0       0       
      +0       0       0       0       0       0       0       0       0       0       0       0       0       0       0       
      +0       0       0       0       0       0       0       0       0       0       0       0       0       0       0       
      +0       0       0       0       0       0       0       0       0
  1167 ;;Total ram usage:        8 bytes
  1168 ;; Hardware stack levels used: 1
  1169 ;; Hardware stack levels required when called: 3
  1170 ;; This function calls:
  1171 ;;		_transmit
  1172 ;; This function is called by:
  1173 ;;		_printLn
  1174 ;;		_transmitData
  1175 ;;		_read
  1176 ;;		_updateCoordinates
  1177 ;; This function uses a non-reentrant model
  1178 ;;
  1179                           
  1180                           	psect	text3
  1181   003ACA                     __ptext3:
  1182                           	callstack 0
  1183   003ACA                     _print:
  1184                           	callstack 121
  1185   003ACA                     
  1186                           ;./uart.h: 38:     for(int i=0; i<length; i++){
  1187   003ACA  0E00               	movlw	0
  1188   003ACC  6E35               	movwf	(print@i+1)^(0+1280),c
  1189   003ACE  0E00               	movlw	0
  1190   003AD0  6E34               	movwf	print@i^(0+1280),c
  1191   003AD2  EF86  F01D         	goto	l1862
  1192   003AD6                     l1858:
  1193                           
  1194                           ;./uart.h: 39:         transmit(*(string+i));
  1195   003AD6  5034               	movf	print@i^(0+1280),w,c
  1196   003AD8  242E               	addwf	print@string^(0+1280),w,c
  1197   003ADA  6E32               	movwf	??_print^(0+1280),c
  1198   003ADC  5035               	movf	(print@i+1)^(0+1280),w,c
  1199   003ADE  202F               	addwfc	(print@string+1)^(0+1280),w,c
  1200   003AE0  6E33               	movwf	(??_print+1)^(0+1280),c
  1201   003AE2  C532  F4F6         	movff	??_print,tblptrl
  1202   003AE6  C533  F4F7         	movff	??_print+1,tblptrh
  1203   003AEA  0E00               	movlw	low (__smallconst shr (0+16))
  1204   003AEC  6EF8               	movwf	tblptru,c
  1205   003AEE  0E36               	movlw	(high __ramtop+-1)
  1206   003AF0  64F7               	cpfsgt	tblptrh,c
  1207   003AF2  D003               	bra	u617
  1208   003AF4  0008               	tblrd		*
  1209   003AF6  50F5               	movf	tablat,w,c
  1210   003AF8  D005               	bra	u610
  1211   003AFA                     u617:
  1212   003AFA  C4F6 F4E9          	movff	tblptrl,fsr0l
  1213   003AFE  C4F7 F4EA          	movff	tblptrh,fsr0h
  1214   003B02  50EF               	movf	indf0,w,c
  1215   003B04                     u610:
  1216   003B04  ECBC  F01D         	call	_transmit
  1217   003B08                     
  1218                           ;./uart.h: 40:     }
  1219   003B08  4A34               	infsnz	print@i^(0+1280),f,c
  1220   003B0A  2A35               	incf	(print@i+1)^(0+1280),f,c
  1221   003B0C                     l1862:
  1222   003B0C  5030               	movf	print@length^(0+1280),w,c
  1223   003B0E  5C34               	subwf	print@i^(0+1280),w,c
  1224   003B10  5035               	movf	(print@i+1)^(0+1280),w,c
  1225   003B12  0A80               	xorlw	128
  1226   003B14  6E32               	movwf	??_print^(0+1280),c
  1227   003B16  5031               	movf	(print@length+1)^(0+1280),w,c
  1228   003B18  0A80               	xorlw	128
  1229   003B1A  5832               	subwfb	??_print^(0+1280),w,c
  1230   003B1C  A0D8               	btfss	status,0,c
  1231   003B1E  EF93  F01D         	goto	u621
  1232   003B22  EF95  F01D         	goto	u620
  1233   003B26                     u621:
  1234   003B26  EF6B  F01D         	goto	l1858
  1235   003B2A                     u620:
  1236   003B2A  0012               	return		;funcret
  1237   003B2C                     __end_of_print:
  1238                           	callstack 0
  1239                           
  1240 ;; *************** function _transmit *****************
  1241 ;; Defined at:
  1242 ;;		line 32 in file "./uart.h"
  1243 ;; Parameters:    Size  Location     Type
  1244 ;;  byte            1    wreg     unsigned char 
  1245 ;; Auto vars:     Size  Location     Type
  1246 ;;  byte            1    2[COMRAM] unsigned char 
  1247 ;; Return value:  Size  Location     Type
  1248 ;;                  1    wreg      void 
  1249 ;; Registers used:
  1250 ;;		wreg
  1251 ;; Tracked objects:
  1252 ;;		On entry : 0/0
  1253 ;;		On exit  : 0/0
  1254 ;;		Unchanged: 0/0
  1255 ;; Data sizes:     COMRAM   BANK5   BANK6   BANK7   BANK8   BANK9  BANK10  BANK11  BANK12  BANK13  BANK14  BANK15  BANK1
      +6  BANK17  BANK18  BANK19  BANK20  BANK21  BANK22  BANK23  BANK24  BANK25  BANK26  BANK27  BANK28  BANK29  BANK30  BANK3
      +1  BANK32  BANK33  BANK34  BANK35  BANK36  BANK37  BANK38  BANK39  BANK40  BANK41  BANK42  BANK43  BANK44  BANK45  BANK4
      +6  BANK47  BANK48  BANK49  BANK50  BANK51  BANK52  BANK53  BANK54
  1256 ;;      Params:         0       0       0       0       0       0       0       0       0       0       0       0       
      +0       0       0       0       0       0       0       0       0       0       0       0       0       0       0       
      +0       0       0       0       0       0       0       0       0       0       0       0       0       0       0       
      +0       0       0       0       0       0       0       0       0
  1257 ;;      Locals:         1       0       0       0       0       0       0       0       0       0       0       0       
      +0       0       0       0       0       0       0       0       0       0       0       0       0       0       0       
      +0       0       0       0       0       0       0       0       0       0       0       0       0       0       0       
      +0       0       0       0       0       0       0       0       0
  1258 ;;      Temps:          0       0       0       0       0       0       0       0       0       0       0       0       
      +0       0       0       0       0       0       0       0       0       0       0       0       0       0       0       
      +0       0       0       0       0       0       0       0       0       0       0       0       0       0       0       
      +0       0       0       0       0       0       0       0       0
  1259 ;;      Totals:         1       0       0       0       0       0       0       0       0       0       0       0       
      +0       0       0       0       0       0       0       0       0       0       0       0       0       0       0       
      +0       0       0       0       0       0       0       0       0       0       0       0       0       0       0       
      +0       0       0       0       0       0       0       0       0
  1260 ;;Total ram usage:        1 bytes
  1261 ;; Hardware stack levels used: 1
  1262 ;; Hardware stack levels required when called: 2
  1263 ;; This function calls:
  1264 ;;		Nothing
  1265 ;; This function is called by:
  1266 ;;		_print
  1267 ;;		_printLn
  1268 ;;		_read
  1269 ;; This function uses a non-reentrant model
  1270 ;;
  1271                           
  1272                           	psect	text4
  1273   003B78                     __ptext4:
  1274                           	callstack 0
  1275   003B78                     _transmit:
  1276                           	callstack 122
  1277                           
  1278                           ;incstack = 0
  1279                           ;transmit@byte stored from wreg
  1280   003B78  6E2D               	movwf	transmit@byte^(0+1280),c
  1281   003B7A                     l393:
  1282   003B7A  0102               	movlb	2	; () banked
  1283   003B7C  B9FC               	btfsc	252,4,b	;volatile
  1284   003B7E  EFC3  F01D         	goto	u551
  1285   003B82  EFC5  F01D         	goto	u550
  1286   003B86                     u551:
  1287   003B86  EFBD  F01D         	goto	l393
  1288   003B8A                     u550:
  1289   003B8A                     
  1290                           ; BSR set to: 2
  1291                           ;./uart.h: 34:     U5TXB = byte;
  1292   003B8A  C52D  F2EF         	movff	transmit@byte,751	;volatile
  1293   003B8E                     
  1294                           ; BSR set to: 2
  1295   003B8E  0012               	return		;funcret
  1296   003B90                     __end_of_transmit:
  1297                           	callstack 0
  1298                           
  1299 ;; *************** function _setupPic *****************
  1300 ;; Defined at:
  1301 ;;		line 37 in file "main.c"
  1302 ;; Parameters:    Size  Location     Type
  1303 ;;		None
  1304 ;; Auto vars:     Size  Location     Type
  1305 ;;		None
  1306 ;; Return value:  Size  Location     Type
  1307 ;;                  1    wreg      void 
  1308 ;; Registers used:
  1309 ;;		wreg, status,2, status,0, cstack
  1310 ;; Tracked objects:
  1311 ;;		On entry : 0/0
  1312 ;;		On exit  : 0/0
  1313 ;;		Unchanged: 0/0
  1314 ;; Data sizes:     COMRAM   BANK5   BANK6   BANK7   BANK8   BANK9  BANK10  BANK11  BANK12  BANK13  BANK14  BANK15  BANK1
      +6  BANK17  BANK18  BANK19  BANK20  BANK21  BANK22  BANK23  BANK24  BANK25  BANK26  BANK27  BANK28  BANK29  BANK30  BANK3
      +1  BANK32  BANK33  BANK34  BANK35  BANK36  BANK37  BANK38  BANK39  BANK40  BANK41  BANK42  BANK43  BANK44  BANK45  BANK4
      +6  BANK47  BANK48  BANK49  BANK50  BANK51  BANK52  BANK53  BANK54
  1315 ;;      Params:         0       0       0       0       0       0       0       0       0       0       0       0       
      +0       0       0       0       0       0       0       0       0       0       0       0       0       0       0       
      +0       0       0       0       0       0       0       0       0       0       0       0       0       0       0       
      +0       0       0       0       0       0       0       0       0
  1316 ;;      Locals:         0       0       0       0       0       0       0       0       0       0       0       0       
      +0       0       0       0       0       0       0       0       0       0       0       0       0       0       0       
      +0       0       0       0       0       0       0       0       0       0       0       0       0       0       0       
      +0       0       0       0       0       0       0       0       0
  1317 ;;      Temps:          0       0       0       0       0       0       0       0       0       0       0       0       
      +0       0       0       0       0       0       0       0       0       0       0       0       0       0       0       
      +0       0       0       0       0       0       0       0       0       0       0       0       0       0       0       
      +0       0       0       0       0       0       0       0       0
  1318 ;;      Totals:         0       0       0       0       0       0       0       0       0       0       0       0       
      +0       0       0       0       0       0       0       0       0       0       0       0       0       0       0       
      +0       0       0       0       0       0       0       0       0       0       0       0       0       0       0       
      +0       0       0       0       0       0       0       0       0
  1319 ;;Total ram usage:        0 bytes
  1320 ;; Hardware stack levels used: 1
  1321 ;; Hardware stack levels required when called: 3
  1322 ;; This function calls:
  1323 ;;		_setupUART
  1324 ;; This function is called by:
  1325 ;;		_main
  1326 ;; This function uses a non-reentrant model
  1327 ;;
  1328                           
  1329                           	psect	text5
  1330   003BB2                     __ptext5:
  1331                           	callstack 0
  1332   003BB2                     _setupPic:
  1333                           	callstack 123
  1334   003BB2                     
  1335                           ;main.c: 38:     setupUART();
  1336   003BB2  ECC8  F01D         	call	_setupUART	;wreg free
  1337   003BB6  0012               	return		;funcret
  1338   003BB8                     __end_of_setupPic:
  1339                           	callstack 0
  1340                           
  1341 ;; *************** function _setupUART *****************
  1342 ;; Defined at:
  1343 ;;		line 20 in file "./uart.h"
  1344 ;; Parameters:    Size  Location     Type
  1345 ;;		None
  1346 ;; Auto vars:     Size  Location     Type
  1347 ;;		None
  1348 ;; Return value:  Size  Location     Type
  1349 ;;                  1    wreg      void 
  1350 ;; Registers used:
  1351 ;;		wreg, status,2, status,0
  1352 ;; Tracked objects:
  1353 ;;		On entry : 0/0
  1354 ;;		On exit  : 0/0
  1355 ;;		Unchanged: 0/0
  1356 ;; Data sizes:     COMRAM   BANK5   BANK6   BANK7   BANK8   BANK9  BANK10  BANK11  BANK12  BANK13  BANK14  BANK15  BANK1
      +6  BANK17  BANK18  BANK19  BANK20  BANK21  BANK22  BANK23  BANK24  BANK25  BANK26  BANK27  BANK28  BANK29  BANK30  BANK3
      +1  BANK32  BANK33  BANK34  BANK35  BANK36  BANK37  BANK38  BANK39  BANK40  BANK41  BANK42  BANK43  BANK44  BANK45  BANK4
      +6  BANK47  BANK48  BANK49  BANK50  BANK51  BANK52  BANK53  BANK54
  1357 ;;      Params:         0       0       0       0       0       0       0       0       0       0       0       0       
      +0       0       0       0       0       0       0       0       0       0       0       0       0       0       0       
      +0       0       0       0       0       0       0       0       0       0       0       0       0       0       0       
      +0       0       0       0       0       0       0       0       0
  1358 ;;      Locals:         0       0       0       0       0       0       0       0       0       0       0       0       
      +0       0       0       0       0       0       0       0       0       0       0       0       0       0       0       
      +0       0       0       0       0       0       0       0       0       0       0       0       0       0       0       
      +0       0       0       0       0       0       0       0       0
  1359 ;;      Temps:          0       0       0       0       0       0       0       0       0       0       0       0       
      +0       0       0       0       0       0       0       0       0       0       0       0       0       0       0       
      +0       0       0       0       0       0       0       0       0       0       0       0       0       0       0       
      +0       0       0       0       0       0       0       0       0
  1360 ;;      Totals:         0       0       0       0       0       0       0       0       0       0       0       0       
      +0       0       0       0       0       0       0       0       0       0       0       0       0       0       0       
      +0       0       0       0       0       0       0       0       0       0       0       0       0       0       0       
      +0       0       0       0       0       0       0       0       0
  1361 ;;Total ram usage:        0 bytes
  1362 ;; Hardware stack levels used: 1
  1363 ;; Hardware stack levels required when called: 2
  1364 ;; This function calls:
  1365 ;;		Nothing
  1366 ;; This function is called by:
  1367 ;;		_setupPic
  1368 ;; This function uses a non-reentrant model
  1369 ;;
  1370                           
  1371                           	psect	text6
  1372   003B90                     __ptext6:
  1373                           	callstack 0
  1374   003B90                     _setupUART:
  1375                           	callstack 123
  1376   003B90                     
  1377                           ;./uart.h: 24:     U5BRG = 12;
  1378   003B90  0E00               	movlw	0
  1379   003B92  0102               	movlb	2	; () banked
  1380   003B94  6FFB               	movwf	251,b	;volatile
  1381   003B96  0E0C               	movlw	12
  1382   003B98  6FFA               	movwf	250,b	;volatile
  1383                           
  1384                           ;./uart.h: 25:     RC3PPS = 0x2C;
  1385   003B9A  0E2C               	movlw	44
  1386   003B9C  6F14               	movwf	20,b	;volatile
  1387   003B9E                     
  1388                           ; BSR set to: 2
  1389                           ;./uart.h: 28:     U5CON0 |= 0b00100000 | 0b00010000;
  1390   003B9E  0E30               	movlw	48
  1391   003BA0  13F7               	iorwf	247,f,b	;volatile
  1392   003BA2                     
  1393                           ; BSR set to: 2
  1394                           ;./uart.h: 29:     U5CON1 |= 0b10000000;
  1395   003BA2  8FF8               	bsf	248,7,b	;volatile
  1396   003BA4                     
  1397                           ; BSR set to: 2
  1398   003BA4  0012               	return		;funcret
  1399   003BA6                     __end_of_setupUART:
  1400                           	callstack 0
  1401                           
  1402 ;; *************** function _INTERRUPT_InterruptManager *****************
  1403 ;; Defined at:
  1404 ;;		line 58 in file "mcc_generated_files/interrupt_manager.c"
  1405 ;; Parameters:    Size  Location     Type
  1406 ;;		None
  1407 ;; Auto vars:     Size  Location     Type
  1408 ;;		None
  1409 ;; Return value:  Size  Location     Type
  1410 ;;                  1    wreg      void 
  1411 ;; Registers used:
  1412 ;;		wreg, pcl, pclath, pclatu, tosl, cstack
  1413 ;; Tracked objects:
  1414 ;;		On entry : 0/0
  1415 ;;		On exit  : 0/0
  1416 ;;		Unchanged: 0/0
  1417 ;; Data sizes:     COMRAM   BANK5   BANK6   BANK7   BANK8   BANK9  BANK10  BANK11  BANK12  BANK13  BANK14  BANK15  BANK1
      +6  BANK17  BANK18  BANK19  BANK20  BANK21  BANK22  BANK23  BANK24  BANK25  BANK26  BANK27  BANK28  BANK29  BANK30  BANK3
      +1  BANK32  BANK33  BANK34  BANK35  BANK36  BANK37  BANK38  BANK39  BANK40  BANK41  BANK42  BANK43  BANK44  BANK45  BANK4
      +6  BANK47  BANK48  BANK49  BANK50  BANK51  BANK52  BANK53  BANK54
  1418 ;;      Params:         0       0       0       0       0       0       0       0       0       0       0       0       
      +0       0       0       0       0       0       0       0       0       0       0       0       0       0       0       
      +0       0       0       0       0       0       0       0       0       0       0       0       0       0       0       
      +0       0       0       0       0       0       0       0       0
  1419 ;;      Locals:         0       0       0       0       0       0       0       0       0       0       0       0       
      +0       0       0       0       0       0       0       0       0       0       0       0       0       0       0       
      +0       0       0       0       0       0       0       0       0       0       0       0       0       0       0       
      +0       0       0       0       0       0       0       0       0
  1420 ;;      Temps:          2       0       0       0       0       0       0       0       0       0       0       0       
      +0       0       0       0       0       0       0       0       0       0       0       0       0       0       0       
      +0       0       0       0       0       0       0       0       0       0       0       0       0       0       0       
      +0       0       0       0       0       0       0       0       0
  1421 ;;      Totals:         2       0       0       0       0       0       0       0       0       0       0       0       
      +0       0       0       0       0       0       0       0       0       0       0       0       0       0       0       
      +0       0       0       0       0       0       0       0       0       0       0       0       0       0       0       
      +0       0       0       0       0       0       0       0       0
  1422 ;;Total ram usage:        2 bytes
  1423 ;; Hardware stack levels used: 1
  1424 ;; Hardware stack levels required when called: 1
  1425 ;; This function calls:
  1426 ;;		NULL
  1427 ;;		_SPI1_DefaultHandler
  1428 ;;		_SPI1_DefaultRxHandler
  1429 ;;		_SPI1_DefaultTxHandler
  1430 ;; This function is called by:
  1431 ;;		Interrupt level 2
  1432 ;; This function uses a non-reentrant model
  1433 ;;
  1434                           
  1435                           	psect	text7
  1436   0038F4                     __ptext7:
  1437                           	callstack 0
  1438   0038F4                     _INTERRUPT_InterruptManager:
  1439                           	callstack 121
  1440                           
  1441                           ; BSR set to: 2
  1442                           ;incstack = 0
  1443   0038F4  C4FA F52B          	movff	pclath,??_INTERRUPT_InterruptManager
  1444   0038F8  C4FB F52C          	movff	pclatu,??_INTERRUPT_InterruptManager+1
  1445   0038FC                     
  1446                           ;mcc_generated_files/interrupt_manager.c: 61:     if(PIE3bits.SPI1TXIE == 1 && PIR3bits.
      +                          SPI1TXIF == 1)
  1447   0038FC  A2A1               	btfss	161,1,c	;volatile
  1448   0038FE  EF83  F01C         	goto	i2u36_41
  1449   003902  EF85  F01C         	goto	i2u36_40
  1450   003906                     i2u36_41:
  1451   003906  EF9B  F01C         	goto	i2l75
  1452   00390A                     i2u36_40:
  1453   00390A  A2B1               	btfss	177,1,c	;volatile
  1454   00390C  EF8A  F01C         	goto	i2u37_41
  1455   003910  EF8C  F01C         	goto	i2u37_40
  1456   003914                     i2u37_41:
  1457   003914  EF9B  F01C         	goto	i2l75
  1458   003918                     i2u37_40:
  1459   003918                     
  1460                           ;mcc_generated_files/interrupt_manager.c: 62:     {;mcc_generated_files/interrupt_manage
      +                          r.c: 63:         SPI1_TxInterruptHandler();
  1461   003918  D802               	call	i2u38_48
  1462   00391A  EF99  F01C         	goto	i2u38_49
  1463   00391E                     i2u38_48:
  1464   00391E  0005               	push	
  1465   003920  6EFA               	movwf	pclath,c
  1466   003922  504D               	movf	_SPI1_TxInterruptHandler^(0+1280),w,c
  1467   003924  6EFD               	movwf	tosl,c
  1468   003926  504E               	movf	(_SPI1_TxInterruptHandler+1)^(0+1280),w,c
  1469   003928  6EFE               	movwf	tosh,c
  1470   00392A  504F               	movf	(_SPI1_TxInterruptHandler+2)^(0+1280),w,c
  1471   00392C  6EFF               	movwf	tosu,c
  1472   00392E  50FA               	movf	pclath,w,c
  1473   003930  0012               	return		;indir
  1474   003932                     i2u38_49:
  1475                           
  1476                           ;mcc_generated_files/interrupt_manager.c: 64:     }
  1477   003932  EFD5  F01C         	goto	i2l81
  1478   003936                     i2l75:
  1479   003936  A4A1               	btfss	161,2,c	;volatile
  1480   003938  EFA0  F01C         	goto	i2u39_41
  1481   00393C  EFA2  F01C         	goto	i2u39_40
  1482   003940                     i2u39_41:
  1483   003940  EFB8  F01C         	goto	i2l77
  1484   003944                     i2u39_40:
  1485   003944  A4B1               	btfss	177,2,c	;volatile
  1486   003946  EFA7  F01C         	goto	i2u40_41
  1487   00394A  EFA9  F01C         	goto	i2u40_40
  1488   00394E                     i2u40_41:
  1489   00394E  EFB8  F01C         	goto	i2l77
  1490   003952                     i2u40_40:
  1491   003952                     
  1492                           ;mcc_generated_files/interrupt_manager.c: 66:     {;mcc_generated_files/interrupt_manage
      +                          r.c: 67:         SPI1_InterruptHandler();
  1493   003952  D802               	call	i2u41_48
  1494   003954  EFB6  F01C         	goto	i2u41_49
  1495   003958                     i2u41_48:
  1496   003958  0005               	push	
  1497   00395A  6EFA               	movwf	pclath,c
  1498   00395C  5053               	movf	_SPI1_InterruptHandler^(0+1280),w,c
  1499   00395E  6EFD               	movwf	tosl,c
  1500   003960  5054               	movf	(_SPI1_InterruptHandler+1)^(0+1280),w,c
  1501   003962  6EFE               	movwf	tosh,c
  1502   003964  5055               	movf	(_SPI1_InterruptHandler+2)^(0+1280),w,c
  1503   003966  6EFF               	movwf	tosu,c
  1504   003968  50FA               	movf	pclath,w,c
  1505   00396A  0012               	return		;indir
  1506   00396C                     i2u41_49:
  1507                           
  1508                           ;mcc_generated_files/interrupt_manager.c: 68:     }
  1509   00396C  EFD5  F01C         	goto	i2l81
  1510   003970                     i2l77:
  1511   003970  A0A1               	btfss	161,0,c	;volatile
  1512   003972  EFBD  F01C         	goto	i2u42_41
  1513   003976  EFBF  F01C         	goto	i2u42_40
  1514   00397A                     i2u42_41:
  1515   00397A  EFD5  F01C         	goto	i2l78
  1516   00397E                     i2u42_40:
  1517   00397E  A0B1               	btfss	177,0,c	;volatile
  1518   003980  EFC4  F01C         	goto	i2u43_41
  1519   003984  EFC6  F01C         	goto	i2u43_40
  1520   003988                     i2u43_41:
  1521   003988  EFD5  F01C         	goto	i2l78
  1522   00398C                     i2u43_40:
  1523   00398C                     
  1524                           ;mcc_generated_files/interrupt_manager.c: 70:     {;mcc_generated_files/interrupt_manage
      +                          r.c: 71:         SPI1_RxInterruptHandler();
  1525   00398C  D802               	call	i2u44_48
  1526   00398E  EFD3  F01C         	goto	i2u44_49
  1527   003992                     i2u44_48:
  1528   003992  0005               	push	
  1529   003994  6EFA               	movwf	pclath,c
  1530   003996  5050               	movf	_SPI1_RxInterruptHandler^(0+1280),w,c
  1531   003998  6EFD               	movwf	tosl,c
  1532   00399A  5051               	movf	(_SPI1_RxInterruptHandler+1)^(0+1280),w,c
  1533   00399C  6EFE               	movwf	tosh,c
  1534   00399E  5052               	movf	(_SPI1_RxInterruptHandler+2)^(0+1280),w,c
  1535   0039A0  6EFF               	movwf	tosu,c
  1536   0039A2  50FA               	movf	pclath,w,c
  1537   0039A4  0012               	return		;indir
  1538   0039A6                     i2u44_49:
  1539                           
  1540                           ;mcc_generated_files/interrupt_manager.c: 72:     }
  1541   0039A6  EFD5  F01C         	goto	i2l81
  1542   0039AA                     i2l78:
  1543   0039AA                     i2l81:
  1544   0039AA  C52C  F4FB         	movff	??_INTERRUPT_InterruptManager+1,pclatu
  1545   0039AE  C52B  F4FA         	movff	??_INTERRUPT_InterruptManager,pclath
  1546   0039B2  0011               	retfie		f
  1547   0039B4                     __end_of_INTERRUPT_InterruptManager:
  1548                           	callstack 0
  1549                           
  1550 ;; *************** function _SPI1_DefaultTxHandler *****************
  1551 ;; Defined at:
  1552 ;;		line 177 in file "mcc_generated_files/spi1.c"
  1553 ;; Parameters:    Size  Location     Type
  1554 ;;		None
  1555 ;; Auto vars:     Size  Location     Type
  1556 ;;		None
  1557 ;; Return value:  Size  Location     Type
  1558 ;;                  1    wreg      void 
  1559 ;; Registers used:
  1560 ;;		None
  1561 ;; Tracked objects:
  1562 ;;		On entry : 0/0
  1563 ;;		On exit  : 0/0
  1564 ;;		Unchanged: 0/0
  1565 ;; Data sizes:     COMRAM   BANK5   BANK6   BANK7   BANK8   BANK9  BANK10  BANK11  BANK12  BANK13  BANK14  BANK15  BANK1
      +6  BANK17  BANK18  BANK19  BANK20  BANK21  BANK22  BANK23  BANK24  BANK25  BANK26  BANK27  BANK28  BANK29  BANK30  BANK3
      +1  BANK32  BANK33  BANK34  BANK35  BANK36  BANK37  BANK38  BANK39  BANK40  BANK41  BANK42  BANK43  BANK44  BANK45  BANK4
      +6  BANK47  BANK48  BANK49  BANK50  BANK51  BANK52  BANK53  BANK54
  1566 ;;      Params:         0       0       0       0       0       0       0       0       0       0       0       0       
      +0       0       0       0       0       0       0       0       0       0       0       0       0       0       0       
      +0       0       0       0       0       0       0       0       0       0       0       0       0       0       0       
      +0       0       0       0       0       0       0       0       0
  1567 ;;      Locals:         0       0       0       0       0       0       0       0       0       0       0       0       
      +0       0       0       0       0       0       0       0       0       0       0       0       0       0       0       
      +0       0       0       0       0       0       0       0       0       0       0       0       0       0       0       
      +0       0       0       0       0       0       0       0       0
  1568 ;;      Temps:          0       0       0       0       0       0       0       0       0       0       0       0       
      +0       0       0       0       0       0       0       0       0       0       0       0       0       0       0       
      +0       0       0       0       0       0       0       0       0       0       0       0       0       0       0       
      +0       0       0       0       0       0       0       0       0
  1569 ;;      Totals:         0       0       0       0       0       0       0       0       0       0       0       0       
      +0       0       0       0       0       0       0       0       0       0       0       0       0       0       0       
      +0       0       0       0       0       0       0       0       0       0       0       0       0       0       0       
      +0       0       0       0       0       0       0       0       0
  1570 ;;Total ram usage:        0 bytes
  1571 ;; Hardware stack levels used: 1
  1572 ;; This function calls:
  1573 ;;		Nothing
  1574 ;; This function is called by:
  1575 ;;		_SPI1_Initialize
  1576 ;;		_INTERRUPT_InterruptManager
  1577 ;; This function uses a non-reentrant model
  1578 ;;
  1579                           
  1580                           	psect	text8
  1581   003BB8                     __ptext8:
  1582                           	callstack 0
  1583   003BB8                     _SPI1_DefaultTxHandler:
  1584                           	callstack 121
  1585   003BB8  0012               	return		;funcret
  1586   003BBA                     __end_of_SPI1_DefaultTxHandler:
  1587                           	callstack 0
  1588                           
  1589 ;; *************** function _SPI1_DefaultRxHandler *****************
  1590 ;; Defined at:
  1591 ;;		line 167 in file "mcc_generated_files/spi1.c"
  1592 ;; Parameters:    Size  Location     Type
  1593 ;;		None
  1594 ;; Auto vars:     Size  Location     Type
  1595 ;;		None
  1596 ;; Return value:  Size  Location     Type
  1597 ;;                  1    wreg      void 
  1598 ;; Registers used:
  1599 ;;		None
  1600 ;; Tracked objects:
  1601 ;;		On entry : 0/0
  1602 ;;		On exit  : 0/0
  1603 ;;		Unchanged: 0/0
  1604 ;; Data sizes:     COMRAM   BANK5   BANK6   BANK7   BANK8   BANK9  BANK10  BANK11  BANK12  BANK13  BANK14  BANK15  BANK1
      +6  BANK17  BANK18  BANK19  BANK20  BANK21  BANK22  BANK23  BANK24  BANK25  BANK26  BANK27  BANK28  BANK29  BANK30  BANK3
      +1  BANK32  BANK33  BANK34  BANK35  BANK36  BANK37  BANK38  BANK39  BANK40  BANK41  BANK42  BANK43  BANK44  BANK45  BANK4
      +6  BANK47  BANK48  BANK49  BANK50  BANK51  BANK52  BANK53  BANK54
  1605 ;;      Params:         0       0       0       0       0       0       0       0       0       0       0       0       
      +0       0       0       0       0       0       0       0       0       0       0       0       0       0       0       
      +0       0       0       0       0       0       0       0       0       0       0       0       0       0       0       
      +0       0       0       0       0       0       0       0       0
  1606 ;;      Locals:         0       0       0       0       0       0       0       0       0       0       0       0       
      +0       0       0       0       0       0       0       0       0       0       0       0       0       0       0       
      +0       0       0       0       0       0       0       0       0       0       0       0       0       0       0       
      +0       0       0       0       0       0       0       0       0
  1607 ;;      Temps:          0       0       0       0       0       0       0       0       0       0       0       0       
      +0       0       0       0       0       0       0       0       0       0       0       0       0       0       0       
      +0       0       0       0       0       0       0       0       0       0       0       0       0       0       0       
      +0       0       0       0       0       0       0       0       0
  1608 ;;      Totals:         0       0       0       0       0       0       0       0       0       0       0       0       
      +0       0       0       0       0       0       0       0       0       0       0       0       0       0       0       
      +0       0       0       0       0       0       0       0       0       0       0       0       0       0       0       
      +0       0       0       0       0       0       0       0       0
  1609 ;;Total ram usage:        0 bytes
  1610 ;; Hardware stack levels used: 1
  1611 ;; This function calls:
  1612 ;;		Nothing
  1613 ;; This function is called by:
  1614 ;;		_SPI1_Initialize
  1615 ;;		_INTERRUPT_InterruptManager
  1616 ;; This function uses a non-reentrant model
  1617 ;;
  1618                           
  1619                           	psect	text9
  1620   003BBA                     __ptext9:
  1621                           	callstack 0
  1622   003BBA                     _SPI1_DefaultRxHandler:
  1623                           	callstack 121
  1624   003BBA  0012               	return		;funcret
  1625   003BBC                     __end_of_SPI1_DefaultRxHandler:
  1626                           	callstack 0
  1627                           
  1628 ;; *************** function _SPI1_DefaultHandler *****************
  1629 ;; Defined at:
  1630 ;;		line 157 in file "mcc_generated_files/spi1.c"
  1631 ;; Parameters:    Size  Location     Type
  1632 ;;		None
  1633 ;; Auto vars:     Size  Location     Type
  1634 ;;		None
  1635 ;; Return value:  Size  Location     Type
  1636 ;;                  1    wreg      void 
  1637 ;; Registers used:
  1638 ;;		None
  1639 ;; Tracked objects:
  1640 ;;		On entry : 0/0
  1641 ;;		On exit  : 0/0
  1642 ;;		Unchanged: 0/0
  1643 ;; Data sizes:     COMRAM   BANK5   BANK6   BANK7   BANK8   BANK9  BANK10  BANK11  BANK12  BANK13  BANK14  BANK15  BANK1
      +6  BANK17  BANK18  BANK19  BANK20  BANK21  BANK22  BANK23  BANK24  BANK25  BANK26  BANK27  BANK28  BANK29  BANK30  BANK3
      +1  BANK32  BANK33  BANK34  BANK35  BANK36  BANK37  BANK38  BANK39  BANK40  BANK41  BANK42  BANK43  BANK44  BANK45  BANK4
      +6  BANK47  BANK48  BANK49  BANK50  BANK51  BANK52  BANK53  BANK54
  1644 ;;      Params:         0       0       0       0       0       0       0       0       0       0       0       0       
      +0       0       0       0       0       0       0       0       0       0       0       0       0       0       0       
      +0       0       0       0       0       0       0       0       0       0       0       0       0       0       0       
      +0       0       0       0       0       0       0       0       0
  1645 ;;      Locals:         0       0       0       0       0       0       0       0       0       0       0       0       
      +0       0       0       0       0       0       0       0       0       0       0       0       0       0       0       
      +0       0       0       0       0       0       0       0       0       0       0       0       0       0       0       
      +0       0       0       0       0       0       0       0       0
  1646 ;;      Temps:          0       0       0       0       0       0       0       0       0       0       0       0       
      +0       0       0       0       0       0       0       0       0       0       0       0       0       0       0       
      +0       0       0       0       0       0       0       0       0       0       0       0       0       0       0       
      +0       0       0       0       0       0       0       0       0
  1647 ;;      Totals:         0       0       0       0       0       0       0       0       0       0       0       0       
      +0       0       0       0       0       0       0       0       0       0       0       0       0       0       0       
      +0       0       0       0       0       0       0       0       0       0       0       0       0       0       0       
      +0       0       0       0       0       0       0       0       0
  1648 ;;Total ram usage:        0 bytes
  1649 ;; Hardware stack levels used: 1
  1650 ;; This function calls:
  1651 ;;		Nothing
  1652 ;; This function is called by:
  1653 ;;		_SPI1_Initialize
  1654 ;;		_INTERRUPT_InterruptManager
  1655 ;; This function uses a non-reentrant model
  1656 ;;
  1657                           
  1658                           	psect	text10
  1659   003BBC                     __ptext10:
  1660                           	callstack 0
  1661   003BBC                     _SPI1_DefaultHandler:
  1662                           	callstack 121
  1663   003BBC  0012               	return		;funcret
  1664   003BBE                     __end_of_SPI1_DefaultHandler:
  1665                           	callstack 0
  1666                           
  1667                           ;
  1668                           ; Interrupt Vector Table @ 0x8
  1669                           ;
  1670                           
  1671                           	psect	ivt0x8
  1672   000008                     __pivt0x8:
  1673                           	callstack 0
  1674   000008                     ivt0x8_base:
  1675                           	callstack 0
  1676                           
  1677                           ; high-priority vector
  1678   000008  EF7A  F01C         	goto	_INTERRUPT_InterruptManager
  1679   000018                     	org	16
  1680                           
  1681                           ; low-priority vector
  1682   000018  00FF               	reset	
  1683                           
  1684                           	psect	text11
  1685   000000                     __ptext11:
  1686                           	callstack 0
  1687   000000                     
  1688                           	psect	rparam
  1689   000000                     
  1690                           	psect	config
  1691                           
  1692                           ;Config register CONFIG1 @ 0x300000
  1693                           ;	External Oscillator Selection
  1694                           ;	FEXTOSC = OFF, Oscillator not enabled
  1695                           ;	Reset Oscillator Selection
  1696                           ;	RSTOSC = LFINTOSC, Low-Frequency Oscillator
  1697   300000                     	org	3145728
  1698   300000  DC                 	db	220
  1699                           
  1700                           ;Config register CONFIG2 @ 0x300001
  1701                           ;	Clock out Enable bit
  1702                           ;	CLKOUTEN = OFF, CLKOUT function is disabled
  1703                           ;	PRLOCKED One-Way Set Enable bit
  1704                           ;	PR1WAY = ON, PRLOCKED bit can be cleared and set only once
  1705                           ;	Clock Switch Enable bit
  1706                           ;	CSWEN = ON, Writing to NOSC and NDIV is allowed
  1707                           ;	JTAG Enable bit
  1708                           ;	JTAGEN = OFF, Disable JTAG Boundary Scan mode, JTAG pins revert to user functions
  1709                           ;	Fail-Safe Clock Monitor Enable bit
  1710                           ;	FCMEN = ON, Fail-Safe Clock Monitor enabled
  1711                           ;	Fail-Safe Clock Monitor -Primary XTAL Enable bit
  1712                           ;	FCMENP = ON, FSCM timer will set FSCMP bit and OSFIF interrupt on Primary XTAL failure
  1713                           ;	Fail-Safe Clock Monitor -Secondary XTAL Enable bit
  1714                           ;	FCMENS = ON, FSCM timer will set FSCMS bit and OSFIF interrupt on Secondary XTAL failu
      +                          re
  1715   300001                     	org	3145729
  1716   300001  EF                 	db	239
  1717                           
  1718                           ;Config register CONFIG3 @ 0x300002
  1719                           ;	MCLR Enable bit
  1720                           ;	MCLRE = EXTMCLR, If LVP = 0, MCLR pin is MCLR; If LVP = 1, RE3 pin function is MCLR
  1721                           ;	Power-up timer selection bits
  1722                           ;	PWRTS = PWRT_OFF, PWRT is disabled
  1723                           ;	Multi-vector enable bit
  1724                           ;	MVECEN = OFF, Interrupt contoller does not use vector table to prioritze interrupts
  1725                           ;	IVTLOCK bit One-way set enable bit
  1726                           ;	IVT1WAY = ON, IVTLOCKED bit can be cleared and set only once
  1727                           ;	Low Power BOR Enable bit
  1728                           ;	LPBOREN = OFF, Low-Power BOR disabled
  1729                           ;	Brown-out Reset Enable bits
  1730                           ;	BOREN = SBORDIS, Brown-out Reset enabled , SBOREN bit is ignored
  1731   300002                     	org	3145730
  1732   300002  F7                 	db	247
  1733                           
  1734                           ;Config register CONFIG4 @ 0x300003
  1735                           ;	Brown-out Reset Voltage Selection bits
  1736                           ;	BORV = VBOR_1P9, Brown-out Reset Voltage (VBOR) set to 1.9V
  1737                           ;	ZCD Disable bit
  1738                           ;	ZCD = OFF, ZCD module is disabled. ZCD can be enabled by setting the ZCDSEN bit of ZCD
      +                          CON
  1739                           ;	PPSLOCK bit One-Way Set Enable bit
  1740                           ;	PPS1WAY = ON, PPSLOCKED bit can be cleared and set only once; PPS registers remain loc
      +                          ked after one clear/set cycle
  1741                           ;	Stack Full/Underflow Reset Enable bit
  1742                           ;	STVREN = ON, Stack full/underflow will cause Reset
  1743                           ;	Low Voltage Programming Enable bit
  1744                           ;	LVP = OFF, HV on MCLR/VPP must be used for programming
  1745                           ;	Extended Instruction Set Enable bit
  1746                           ;	XINST = OFF, Extended Instruction Set and Indexed Addressing Mode disabled
  1747   300003                     	org	3145731
  1748   300003  DF                 	db	223
  1749                           
  1750                           ;Config register CONFIG5 @ 0x300004
  1751                           ;	WDT Period selection bits
  1752                           ;	WDTCPS = WDTCPS_31, Divider ratio 1:65536; software control of WDTPS
  1753                           ;	WDT operating mode
  1754                           ;	WDTE = OFF, WDT Disabled; SWDTEN is ignored
  1755   300004                     	org	3145732
  1756   300004  9F                 	db	159
  1757                           
  1758                           ;Config register CONFIG6 @ 0x300005
  1759                           ;	WDT Window Select bits
  1760                           ;	WDTCWS = WDTCWS_7, window always open (100%); software control; keyed access not requi
      +                          red
  1761                           ;	WDT input clock selector
  1762                           ;	WDTCCS = SC, Software Control
  1763   300005                     	org	3145733
  1764   300005  FF                 	db	255
  1765                           
  1766                           ;Config register CONFIG7 @ 0x300006
  1767                           ;	Boot Block Size selection bits
  1768                           ;	BBSIZE = BBSIZE_512, Boot Block size is 512 words
  1769                           ;	Boot Block enable bit
  1770                           ;	BBEN = OFF, Boot block disabled
  1771                           ;	Storage Area Flash enable bit
  1772                           ;	SAFEN = OFF, SAF disabled
  1773                           ;	Background Debugger
  1774                           ;	DEBUG = 0x1, unprogrammed default
  1775   300006                     	org	3145734
  1776   300006  FF                 	db	255
  1777                           
  1778                           ;Config register CONFIG8 @ 0x300007
  1779                           ;	Boot Block Write Protection bit
  1780                           ;	WRTB = OFF, Boot Block not Write protected
  1781                           ;	Configuration Register Write Protection bit
  1782                           ;	WRTC = OFF, Configuration registers not Write protected
  1783                           ;	Data EEPROM Write Protection bit
  1784                           ;	WRTD = OFF, Data EEPROM not Write protected
  1785                           ;	SAF Write protection bit
  1786                           ;	WRTSAF = OFF, SAF not Write Protected
  1787                           ;	Application Block write protection bit
  1788                           ;	WRTAPP = OFF, Application Block not write protected
  1789   300007                     	org	3145735
  1790   300007  FF                 	db	255
  1791                           
  1792                           ;Config register CONFIG9 @ 0x300008
  1793                           ;	CRC on boot output pin selection
  1794                           ;	BOOTPINSEL = RC5, CRC on boot output pin is RC5
  1795                           ;	CRC on boot output pin enable bit
  1796                           ;	BPEN = OFF, CRC on boot output pin disabled
  1797                           ;	CRC on boot output pin open drain bit
  1798                           ;	ODCON = OFF, Pin drives both high-going and low-going signals
  1799   300008                     	org	3145736
  1800   300008  FF                 	db	255
  1801                           
  1802                           ;Config register CONFIG10 @ 0x300009
  1803                           ;	PFM and Data EEPROM Code Protection bit
  1804                           ;	CP = OFF, PFM and Data EEPROM code protection disabled
  1805   300009                     	org	3145737
  1806   300009  FF                 	db	255
  1807                           
  1808                           ;Config register CONFIG11 @ 0x30000A
  1809                           ;	CRC on boot scan enable for boot area
  1810                           ;	BOOTSCEN = OFF, CRC on boot will not include the boot area of program memory in its ca
      +                          lculation
  1811                           ;	CRC on boot Continue on Error for boot areas bit
  1812                           ;	BOOTCOE = HALT, CRC on boot will stop device if error is detected in boot areas
  1813                           ;	CRC on boot application code scan enable
  1814                           ;	APPSCEN = OFF, CRC on boot will not include the application area of program memory in 
      +                          its calculation
  1815                           ;	CRC on boot SAF area scan enable
  1816                           ;	SAFSCEN = OFF, CRC on boot will not include the SAF area of program memory in its calc
      +                          ulation
  1817                           ;	CRC on boot Data EEPROM scan enable
  1818                           ;	DATASCEN = OFF, CRC on boot will not include data EEPROM in its calculation
  1819                           ;	CRC on boot Config fuses scan enable
  1820                           ;	CFGSCEN = OFF, CRC on boot will not include the configuration fuses in its calculation
  1821                           ;	CRC on boot Continue on Error for non-boot areas bit
  1822                           ;	COE = HALT, CRC on boot will stop device if error is detected in non-boot areas
  1823                           ;	Boot on CRC Enable bit
  1824                           ;	BOOTPOR = OFF, CRC on boot will not run
  1825   30000A                     	org	3145738
  1826   30000A  FF                 	db	255
  1827                           
  1828                           ;Config register CONFIG12 @ 0x30000B
  1829                           ;	Boot Sector Polynomial for CRC on boot bits 31-24
  1830                           ;	BCRCPOLT = hFF, Bits 31:24 of BCRCPOL are 0xFF
  1831   30000B                     	org	3145739
  1832   30000B  FF                 	db	255
  1833                           
  1834                           ;Config register CONFIG13 @ 0x30000C
  1835                           ;	Boot Sector Polynomial for CRC on boot bits 23-16
  1836                           ;	BCRCPOLU = hFF, Bits 23:16 of BCRCPOL are 0xFF
  1837   30000C                     	org	3145740
  1838   30000C  FF                 	db	255
  1839                           
  1840                           ;Config register CONFIG14 @ 0x30000D
  1841                           ;	Boot Sector Polynomial for CRC on boot bits 15-8
  1842                           ;	BCRCPOLH = hFF, Bits 15:8 of BCRCPOL are 0xFF
  1843   30000D                     	org	3145741
  1844   30000D  FF                 	db	255
  1845                           
  1846                           ;Config register CONFIG15 @ 0x30000E
  1847                           ;	Boot Sector Polynomial for CRC on boot bits 7-0
  1848                           ;	BCRCPOLL = hFF, Bits 7:0 of BCRCPOL are 0xFF
  1849   30000E                     	org	3145742
  1850   30000E  FF                 	db	255
  1851                           
  1852                           ;Config register CONFIG16 @ 0x30000F
  1853                           ;	Boot Sector Seed for CRC on boot bits 31-24
  1854                           ;	BCRCSEEDT = hFF, Bits 31:24 of BCRCSEED are 0xFF
  1855   30000F                     	org	3145743
  1856   30000F  FF                 	db	255
  1857                           
  1858                           ;Config register CONFIG17 @ 0x300010
  1859                           ;	Boot Sector Seed for CRC on boot bits 23-16
  1860                           ;	BCRCSEEDU = hFF, Bits 23:16 of BCRCSEED are 0xFF
  1861   300010                     	org	3145744
  1862   300010  FF                 	db	255
  1863                           
  1864                           ;Config register CONFIG18 @ 0x300011
  1865                           ;	Boot Sector Seed for CRC on boot bits 15-8
  1866                           ;	BCRCSEEDH = hFF, Bits 15:8 of BCRCSEED are 0xFF
  1867   300011                     	org	3145745
  1868   300011  FF                 	db	255
  1869                           
  1870                           ;Config register CONFIG19 @ 0x300012
  1871                           ;	Boot Sector Seed for CRC on boot bits 7-0
  1872                           ;	BCRCSEEDL = hFF, Bits 7:0 of BCRCSEED are 0xFF
  1873   300012                     	org	3145746
  1874   300012  FF                 	db	255
  1875                           
  1876                           ;Config register CONFIG24 @ 0x300017
  1877                           ;	Non-Boot Sector Polynomial for CRC on boot bits 31-24
  1878                           ;	CRCPOLT = hFF, Bits 31:24 of CRCPOL are 0xFF
  1879   300017                     	org	3145751
  1880   300017  FF                 	db	255
  1881                           
  1882                           ;Config register CONFIG25 @ 0x300018
  1883                           ;	Non-Boot Sector Polynomial for CRC on boot bits 23-16
  1884                           ;	CRCPOLU = hFF, Bits 23:16 of CRCPOL are 0xFF
  1885   300018                     	org	3145752
  1886   300018  FF                 	db	255
  1887                           
  1888                           ;Config register CONFIG26 @ 0x300019
  1889                           ;	Non-Boot Sector Polynomial for CRC on boot bits 15-8
  1890                           ;	CRCPOLH = hFF, Bits 15:8 of CRCPOL are 0xFF
  1891   300019                     	org	3145753
  1892   300019  FF                 	db	255
  1893                           
  1894                           ;Config register CONFIG27 @ 0x30001A
  1895                           ;	Non-Boot Sector Polynomial for CRC on boot bits 7-0
  1896                           ;	CRCPOLL = hFF, Bits 7:0 of CRCPOL are 0xFF
  1897   30001A                     	org	3145754
  1898   30001A  FF                 	db	255
  1899                           
  1900                           ;Config register CONFIG28 @ 0x30001B
  1901                           ;	Non-Boot Sector Seed for CRC on boot bits 31-24
  1902                           ;	CRCSEEDT = hFF, Bits 31:24 of CRCSEED are 0xFF
  1903   30001B                     	org	3145755
  1904   30001B  FF                 	db	255
  1905                           
  1906                           ;Config register CONFIG29 @ 0x30001C
  1907                           ;	Non-Boot Sector Seed for CRC on boot bits 23-16
  1908                           ;	CRCSEEDU = hFF, Bits 23:16 of CRCSEED are 0xFF
  1909   30001C                     	org	3145756
  1910   30001C  FF                 	db	255
  1911                           
  1912                           ;Config register CONFIG30 @ 0x30001D
  1913                           ;	Non-Boot Sector Seed for CRC on boot bits 15-8
  1914                           ;	CRCSEEDH = hFF, Bits 15:8 of CRCSEED are 0xFF
  1915   30001D                     	org	3145757
  1916   30001D  FF                 	db	255
  1917                           
  1918                           ;Config register CONFIG31 @ 0x30001E
  1919                           ;	Non-Boot Sector Seed for CRC on boot bits 7-0
  1920                           ;	CRCSEEDL = hFF, Bits 7:0 of CRCSEED are 0xFF
  1921   30001E                     	org	3145758
  1922   30001E  FF                 	db	255
  1923                           tosu	equ	0x4FF
  1924                           tosh	equ	0x4FE
  1925                           tosl	equ	0x4FD
  1926                           stkptr	equ	0x4FC
  1927                           pclatu	equ	0x4FB
  1928                           pclath	equ	0x4FA
  1929                           pcl	equ	0x4F9
  1930                           tblptru	equ	0x4F8
  1931                           tblptrh	equ	0x4F7
  1932                           tblptrl	equ	0x4F6
  1933                           tablat	equ	0x4F5
  1934                           prodh	equ	0x4F4
  1935                           prodl	equ	0x4F3
  1936                           indf0	equ	0x4EF
  1937                           postinc0	equ	0x4EE
  1938                           postdec0	equ	0x4ED
  1939                           preinc0	equ	0x4EC
  1940                           plusw0	equ	0x4EB
  1941                           fsr0h	equ	0x4EA
  1942                           fsr0l	equ	0x4E9
  1943                           wreg	equ	0x4E8
  1944                           indf1	equ	0x4E7
  1945                           postinc1	equ	0x4E6
  1946                           postdec1	equ	0x4E5
  1947                           preinc1	equ	0x4E4
  1948                           plusw1	equ	0x4E3
  1949                           fsr1h	equ	0x4E2
  1950                           fsr1l	equ	0x4E1
  1951                           bsr	equ	0x4E0
  1952                           indf2	equ	0x4DF
  1953                           postinc2	equ	0x4DE
  1954                           postdec2	equ	0x4DD
  1955                           preinc2	equ	0x4DC
  1956                           plusw2	equ	0x4DB
  1957                           fsr2h	equ	0x4DA
  1958                           fsr2l	equ	0x4D9
  1959                           status	equ	0x4D8

Data Sizes:
    Strings     46
    Constant    16
    Data        191
    BSS         23
    Persistent  0
    Stack       0

Auto Spaces:
    Space          Size  Autos    Used
    COMRAM           95     34      88
    BANK5           160    143     155
    BANK6           256      0     148
    BANK7           256      0       0
    BANK8           256      0       0
    BANK9           256      0       0
    BANK10          256      0       0
    BANK11          256      0       0
    BANK12          256      0       0
    BANK13          256      0       0
    BANK14          256      0       0
    BANK15          256      0       0
    BANK16          256      0       0
    BANK17          256      0       0
    BANK18          256      0       0
    BANK19          256      0       0
    BANK20          256      0       0
    BANK21          256      0       0
    BANK22          256      0       0
    BANK23          256      0       0
    BANK24          256      0       0
    BANK25          256      0       0
    BANK26          256      0       0
    BANK27          256      0       0
    BANK28          256      0       0
    BANK29          256      0       0
    BANK30          256      0       0
    BANK31          256      0       0
    BANK32          256      0       0
    BANK33          256      0       0
    BANK34          256      0       0
    BANK35          256      0       0
    BANK36          256      0       0
    BANK37          256      0       0
    BANK38          256      0       0
    BANK39          256      0       0
    BANK40          256      0       0
    BANK41          256      0       0
    BANK42          256      0       0
    BANK43          256      0       0
    BANK44          256      0       0
    BANK45          256      0       0
    BANK46          256      0       0
    BANK47          256      0       0
    BANK48          256      0       0
    BANK49          256      0       0
    BANK50          256      0       0
    BANK51          256      0       0
    BANK52          256      0       0
    BANK53          256      0       0
    BANK54          256      0       0

Pointer List with Targets:

    FIFO	const PTR volatile struct CAN_FIFOREG size(2) Largest target is 1
		 -> C1TXQCONL(BITBIGSFRhhhlllll[1]), 

    print@string	PTR unsigned char  size(2) Largest target is 128
		 -> read@hello(COMRAM[11]), read@loop(COMRAM[8]), STR_1(CODE[10]), transmitData@data(BANK5[13]), 
		 -> transmitData@init(BANK5[12]), transmitData@para(BANK5[19]), transmitData@send(BANK5[16]), transmitData@url(BANK5[38]), 
		 -> updateCoordinates@command(COMRAM[11]), updateCoordinates@response(BANK5[128]), 

    printLn@string	PTR unsigned char  size(2) Largest target is 38
		 -> STR_1(CODE[10]), transmitData@init(BANK5[12]), transmitData@send(BANK5[16]), transmitData@url(BANK5[38]), 
		 -> updateCoordinates@command(COMRAM[11]), 

    SPI1_InterruptHandler	PTR FTN()void  size(3) Largest target is 1
		 -> SPI1_DefaultHandler(), NULL(), 

    SPI1_RxInterruptHandler	PTR FTN()void  size(3) Largest target is 1
		 -> SPI1_DefaultRxHandler(), NULL(), 

    SPI1_TxInterruptHandler	PTR FTN()void  size(3) Largest target is 1
		 -> SPI1_DefaultTxHandler(), NULL(), 

    transmitData@CanData	PTR struct CanData size(2) Largest target is 18
		 -> dataList(BANK6[18]), 

    transmitData@sim	PTR struct SIM size(2) Largest target is 11
		 -> main@sim(COMRAM[11]), 


Critical Paths under _main in COMRAM

    _main->_transmitData
    _transmitData->_printLn
    _printLn->_print
    _print->_transmit

Critical Paths under _INTERRUPT_InterruptManager in COMRAM

    None.

Critical Paths under _main in BANK5

    _main->_transmitData

Critical Paths under _INTERRUPT_InterruptManager in BANK5

    None.

Critical Paths under _main in BANK6

    None.

Critical Paths under _INTERRUPT_InterruptManager in BANK6

    None.

Critical Paths under _main in BANK7

    None.

Critical Paths under _INTERRUPT_InterruptManager in BANK7

    None.

Critical Paths under _main in BANK8

    None.

Critical Paths under _INTERRUPT_InterruptManager in BANK8

    None.

Critical Paths under _main in BANK9

    None.

Critical Paths under _INTERRUPT_InterruptManager in BANK9

    None.

Critical Paths under _main in BANK10

    None.

Critical Paths under _INTERRUPT_InterruptManager in BANK10

    None.

Critical Paths under _main in BANK11

    None.

Critical Paths under _INTERRUPT_InterruptManager in BANK11

    None.

Critical Paths under _main in BANK12

    None.

Critical Paths under _INTERRUPT_InterruptManager in BANK12

    None.

Critical Paths under _main in BANK13

    None.

Critical Paths under _INTERRUPT_InterruptManager in BANK13

    None.

Critical Paths under _main in BANK14

    None.

Critical Paths under _INTERRUPT_InterruptManager in BANK14

    None.

Critical Paths under _main in BANK15

    None.

Critical Paths under _INTERRUPT_InterruptManager in BANK15

    None.

Critical Paths under _main in BANK16

    None.

Critical Paths under _INTERRUPT_InterruptManager in BANK16

    None.

Critical Paths under _main in BANK17

    None.

Critical Paths under _INTERRUPT_InterruptManager in BANK17

    None.

Critical Paths under _main in BANK18

    None.

Critical Paths under _INTERRUPT_InterruptManager in BANK18

    None.

Critical Paths under _main in BANK19

    None.

Critical Paths under _INTERRUPT_InterruptManager in BANK19

    None.

Critical Paths under _main in BANK20

    None.

Critical Paths under _INTERRUPT_InterruptManager in BANK20

    None.

Critical Paths under _main in BANK21

    None.

Critical Paths under _INTERRUPT_InterruptManager in BANK21

    None.

Critical Paths under _main in BANK22

    None.

Critical Paths under _INTERRUPT_InterruptManager in BANK22

    None.

Critical Paths under _main in BANK23

    None.

Critical Paths under _INTERRUPT_InterruptManager in BANK23

    None.

Critical Paths under _main in BANK24

    None.

Critical Paths under _INTERRUPT_InterruptManager in BANK24

    None.

Critical Paths under _main in BANK25

    None.

Critical Paths under _INTERRUPT_InterruptManager in BANK25

    None.

Critical Paths under _main in BANK26

    None.

Critical Paths under _INTERRUPT_InterruptManager in BANK26

    None.

Critical Paths under _main in BANK27

    None.

Critical Paths under _INTERRUPT_InterruptManager in BANK27

    None.

Critical Paths under _main in BANK28

    None.

Critical Paths under _INTERRUPT_InterruptManager in BANK28

    None.

Critical Paths under _main in BANK29

    None.

Critical Paths under _INTERRUPT_InterruptManager in BANK29

    None.

Critical Paths under _main in BANK30

    None.

Critical Paths under _INTERRUPT_InterruptManager in BANK30

    None.

Critical Paths under _main in BANK31

    None.

Critical Paths under _INTERRUPT_InterruptManager in BANK31

    None.

Critical Paths under _main in BANK32

    None.

Critical Paths under _INTERRUPT_InterruptManager in BANK32

    None.

Critical Paths under _main in BANK33

    None.

Critical Paths under _INTERRUPT_InterruptManager in BANK33

    None.

Critical Paths under _main in BANK34

    None.

Critical Paths under _INTERRUPT_InterruptManager in BANK34

    None.

Critical Paths under _main in BANK35

    None.

Critical Paths under _INTERRUPT_InterruptManager in BANK35

    None.

Critical Paths under _main in BANK36

    None.

Critical Paths under _INTERRUPT_InterruptManager in BANK36

    None.

Critical Paths under _main in BANK37

    None.

Critical Paths under _INTERRUPT_InterruptManager in BANK37

    None.

Critical Paths under _main in BANK38

    None.

Critical Paths under _INTERRUPT_InterruptManager in BANK38

    None.

Critical Paths under _main in BANK39

    None.

Critical Paths under _INTERRUPT_InterruptManager in BANK39

    None.

Critical Paths under _main in BANK40

    None.

Critical Paths under _INTERRUPT_InterruptManager in BANK40

    None.

Critical Paths under _main in BANK41

    None.

Critical Paths under _INTERRUPT_InterruptManager in BANK41

    None.

Critical Paths under _main in BANK42

    None.

Critical Paths under _INTERRUPT_InterruptManager in BANK42

    None.

Critical Paths under _main in BANK43

    None.

Critical Paths under _INTERRUPT_InterruptManager in BANK43

    None.

Critical Paths under _main in BANK44

    None.

Critical Paths under _INTERRUPT_InterruptManager in BANK44

    None.

Critical Paths under _main in BANK45

    None.

Critical Paths under _INTERRUPT_InterruptManager in BANK45

    None.

Critical Paths under _main in BANK46

    None.

Critical Paths under _INTERRUPT_InterruptManager in BANK46

    None.

Critical Paths under _main in BANK47

    None.

Critical Paths under _INTERRUPT_InterruptManager in BANK47

    None.

Critical Paths under _main in BANK48

    None.

Critical Paths under _INTERRUPT_InterruptManager in BANK48

    None.

Critical Paths under _main in BANK49

    None.

Critical Paths under _INTERRUPT_InterruptManager in BANK49

    None.

Critical Paths under _main in BANK50

    None.

Critical Paths under _INTERRUPT_InterruptManager in BANK50

    None.

Critical Paths under _main in BANK51

    None.

Critical Paths under _INTERRUPT_InterruptManager in BANK51

    None.

Critical Paths under _main in BANK52

    None.

Critical Paths under _INTERRUPT_InterruptManager in BANK52

    None.

Critical Paths under _main in BANK53

    None.

Critical Paths under _INTERRUPT_InterruptManager in BANK53

    None.

Critical Paths under _main in BANK54

    None.

Critical Paths under _INTERRUPT_InterruptManager in BANK54

    None.

Call Graph Tables:

 ---------------------------------------------------------------------------------
 (Depth) Function   	        Calls       Base Space   Used Autos Params    Refs
 ---------------------------------------------------------------------------------
 (0) _main                                                13    13      0    3952
                                             21 COMRAM    13    13      0
                           _setupPic
                       _transmitData
 ---------------------------------------------------------------------------------
 (1) _transmitData                                       149   143      6    3908
                                             15 COMRAM     6     0      6
                                              0 BANK5    143   143      0
                              _print
                            _printLn
 ---------------------------------------------------------------------------------
 (2) _printLn                                              4     0      4    2002
                                             11 COMRAM     4     0      4
                              _print
                           _transmit
 ---------------------------------------------------------------------------------
 (3) _print                                                8     4      4    1328
                                              3 COMRAM     8     4      4
                           _transmit
 ---------------------------------------------------------------------------------
 (3) _transmit                                             1     1      0      22
                                              2 COMRAM     1     1      0
 ---------------------------------------------------------------------------------
 (1) _setupPic                                             0     0      0       0
                          _setupUART
 ---------------------------------------------------------------------------------
 (2) _setupUART                                            0     0      0       0
 ---------------------------------------------------------------------------------
 Estimated maximum stack depth 3
 ---------------------------------------------------------------------------------
 (Depth) Function   	        Calls       Base Space   Used Autos Params    Refs
 ---------------------------------------------------------------------------------
 (5) _INTERRUPT_InterruptManager                           2     2      0       0
                                              0 COMRAM     2     2      0
                                NULL *
                _SPI1_DefaultHandler *
              _SPI1_DefaultRxHandler *
              _SPI1_DefaultTxHandler *
 ---------------------------------------------------------------------------------
 (6) _SPI1_DefaultTxHandler                                0     0      0       0
 ---------------------------------------------------------------------------------
 (6) _SPI1_DefaultRxHandler                                0     0      0       0
 ---------------------------------------------------------------------------------
 (6) _SPI1_DefaultHandler                                  0     0      0       0
 ---------------------------------------------------------------------------------
 (6) NULL(Fake)                                            0     0      0       0
 ---------------------------------------------------------------------------------
 Estimated maximum stack depth 6
 ---------------------------------------------------------------------------------

 Call Graph Graphs:

 _main (ROOT)
   _setupPic
     _setupUART
   _transmitData
     _print
       _transmit
     _printLn
       _print
       _transmit

 _INTERRUPT_InterruptManager (ROOT)
   NULL(Fake) *
   _SPI1_DefaultHandler *
   _SPI1_DefaultRxHandler *
   _SPI1_DefaultTxHandler *

 Address spaces:
Name               Size   Autos  Total    Cost      Usage
BIGRAM            31FF      0       0     105        0.0%
BITBIGSFR_1        900      0       0     104        0.0%
EEDATA             400      0       0       0        0.0%
BITBIGSFRhhhllh    103      0       0     117        0.0%
BITBANK54          100      0       0     102        0.0%
BANK54             100      0       0     103        0.0%
BITBANK53          100      0       0     100        0.0%
BANK53             100      0       0     101        0.0%
BITBANK52          100      0       0      98        0.0%
BANK52             100      0       0      99        0.0%
BITBANK51          100      0       0      96        0.0%
BANK51             100      0       0      97        0.0%
BITBANK50          100      0       0      94        0.0%
BANK50             100      0       0      95        0.0%
BITBANK49          100      0       0      92        0.0%
BANK49             100      0       0      93        0.0%
BITBANK48          100      0       0      90        0.0%
BANK48             100      0       0      91        0.0%
BITBANK47          100      0       0      88        0.0%
BANK47             100      0       0      89        0.0%
BITBANK46          100      0       0      86        0.0%
BANK46             100      0       0      87        0.0%
BITBANK45          100      0       0      84        0.0%
BANK45             100      0       0      85        0.0%
BITBANK44          100      0       0      82        0.0%
BANK44             100      0       0      83        0.0%
BITBANK43          100      0       0      80        0.0%
BANK43             100      0       0      81        0.0%
BITBANK42          100      0       0      78        0.0%
BANK42             100      0       0      79        0.0%
BITBANK41          100      0       0      76        0.0%
BANK41             100      0       0      77        0.0%
BITBANK40          100      0       0      74        0.0%
BANK40             100      0       0      75        0.0%
BITBANK39          100      0       0      72        0.0%
BANK39             100      0       0      73        0.0%
BITBANK38          100      0       0      70        0.0%
BANK38             100      0       0      71        0.0%
BITBANK37          100      0       0      68        0.0%
BANK37             100      0       0      69        0.0%
BITBANK36          100      0       0      66        0.0%
BANK36             100      0       0      67        0.0%
BITBANK35          100      0       0      64        0.0%
BANK35             100      0       0      65        0.0%
BITBANK34          100      0       0      62        0.0%
BANK34             100      0       0      63        0.0%
BITBANK33          100      0       0      60        0.0%
BANK33             100      0       0      61        0.0%
BITBANK32          100      0       0      58        0.0%
BANK32             100      0       0      59        0.0%
BITBANK31          100      0       0      56        0.0%
BANK31             100      0       0      57        0.0%
BITBANK30          100      0       0      54        0.0%
BANK30             100      0       0      55        0.0%
BITBANK29          100      0       0      52        0.0%
BANK29             100      0       0      53        0.0%
BITBANK28          100      0       0      50        0.0%
BANK28             100      0       0      51        0.0%
BITBANK27          100      0       0      48        0.0%
BANK27             100      0       0      49        0.0%
BITBANK26          100      0       0      46        0.0%
BANK26             100      0       0      47        0.0%
BITBANK25          100      0       0      44        0.0%
BANK25             100      0       0      45        0.0%
BITBANK24          100      0       0      42        0.0%
BANK24             100      0       0      43        0.0%
BITBANK23          100      0       0      40        0.0%
BANK23             100      0       0      41        0.0%
BITBANK22          100      0       0      38        0.0%
BANK22             100      0       0      39        0.0%
BITBANK21          100      0       0      36        0.0%
BANK21             100      0       0      37        0.0%
BITBANK20          100      0       0      34        0.0%
BANK20             100      0       0      35        0.0%
BITBANK19          100      0       0      32        0.0%
BANK19             100      0       0      33        0.0%
BITBANK18          100      0       0      30        0.0%
BANK18             100      0       0      31        0.0%
BITBANK17          100      0       0      28        0.0%
BANK17             100      0       0      29        0.0%
BITBANK16          100      0       0      26        0.0%
BANK16             100      0       0      27        0.0%
BITBANK15          100      0       0      24        0.0%
BANK15             100      0       0      25        0.0%
BITBANK14          100      0       0      22        0.0%
BANK14             100      0       0      23        0.0%
BITBANK13          100      0       0      20        0.0%
BANK13             100      0       0      21        0.0%
BITBANK12          100      0       0      18        0.0%
BANK12             100      0       0      19        0.0%
BITBANK11          100      0       0      16        0.0%
BANK11             100      0       0      17        0.0%
BITBANK10          100      0       0      14        0.0%
BANK10             100      0       0      15        0.0%
BITBANK9           100      0       0      12        0.0%
BANK9              100      0       0      13        0.0%
BITBANK8           100      0       0      10        0.0%
BANK8              100      0       0      11        0.0%
BITBANK7           100      0       0       8        0.0%
BANK7              100      0       0       9        0.0%
BITBANK6           100      0       0       6        0.0%
BANK6              100      0      94       7       57.8%
BITBIGSFRhhhllh     C3      0       0     122        0.0%
BITBANK5            A0      0       0       4        0.0%
BANK5               A0     8F      9B       5       96.9%
BITBIGSFRhhhllh     83      0       0     120        0.0%
BITBIGSFRhhhllh     7C      0       0     112        0.0%
BITBIGSFRll         60      0       0     135        0.0%
BITCOMRAM           5F      0       0       0        0.0%
COMRAM              5F     22      58       1       92.6%
BITBIGSFRhhhllh     55      0       0     121        0.0%
BITBIGSFRhhhlll     4C      0       0     127        0.0%
BITBIGSFRhhhh       29      0       0     106        0.0%
BITBIGSFRlhhh       20      0       0     130        0.0%
BITBIGSFRlhll       17      0       0     134        0.0%
BITBIGSFRhhhlll     16      0       0     124        0.0%
BITBIGSFRhhhlll     15      0       0     123        0.0%
BITBIGSFRhhhlll     15      0       0     126        0.0%
BITBIGSFRhhhlhl      F      0       0     111        0.0%
BITBIGSFRhhhlhh      C      0       0     110        0.0%
BITBIGSFRhhhllh      7      0       0     119        0.0%
BITBIGSFRhhhlhh      6      0       0     107        0.0%
BITBIGSFRhhhlhh      4      0       0     108        0.0%
BITBIGSFRhhhllh      3      0       0     116        0.0%
BITBIGSFRhhhllh      3      0       0     115        0.0%
BITBIGSFRhhhllh      3      0       0     114        0.0%
BITBIGSFRhhhllh      3      0       0     113        0.0%
BITBIGSFRhhhlhh      3      0       0     109        0.0%
BITBIGSFRlhhlh       2      0       0     131        0.0%
BITBIGSFRlhhll       2      0       0     132        0.0%
BITBIGSFRhhhllh      1      0       0     118        0.0%
BITBIGSFRlhlh        1      0       0     133        0.0%
BITBIGSFRhhhlll      1      0       0     125        0.0%
BITBIGSFRhhlh        1      0       0     128        0.0%
BITBIGSFRhl          1      0       0     129        0.0%
BIGSFR_1             0      0       0     200        0.0%
BIGSFR               0      0       0     200        0.0%
BITSFR_14            0      0       0     200        0.0%
SFR_14               0      0       0     200        0.0%
BITSFR_13            0      0       0     200        0.0%
SFR_13               0      0       0     200        0.0%
BITSFR_12            0      0       0     200        0.0%
SFR_12               0      0       0     200        0.0%
BITSFR_11            0      0       0     200        0.0%
SFR_11               0      0       0     200        0.0%
BITSFR_10            0      0       0     200        0.0%
SFR_10               0      0       0     200        0.0%
BITSFR_9             0      0       0     200        0.0%
SFR_9                0      0       0     200        0.0%
BITSFR_8             0      0       0     200        0.0%
SFR_8                0      0       0     200        0.0%
BITSFR_7             0      0       0     200        0.0%
SFR_7                0      0       0     200        0.0%
BITSFR_6             0      0       0     200        0.0%
SFR_6                0      0       0     200        0.0%
BITSFR_5             0      0       0     200        0.0%
SFR_5                0      0       0     200        0.0%
BITSFR_4             0      0       0     200        0.0%
SFR_4                0      0       0     200        0.0%
BITSFR_3             0      0       0     200        0.0%
SFR_3                0      0       0     200        0.0%
BITSFR_2             0      0       0     200        0.0%
SFR_2                0      0       0     200        0.0%
BITSFR_1             0      0       0     200        0.0%
SFR_1                0      0       0     200        0.0%
BITSFR               0      0       0     200        0.0%
SFR                  0      0       0     200        0.0%
STACK                0      0       0       2        0.0%
NULL                 0      0       0       0        0.0%
ABS                  0      0     187     136        0.0%
DATA                 0      0     187       3        0.0%
CODE                 0      0       0       0        0.0%


Microchip Technology PIC18 Macro Assembler V2.45 build 20230818022343 
Symbol Table                                                                                   Thu Jan 18 22:25:17 2024

                     printLn@length 0538                                 l402 3B2A  
                               l500 3868                                 l405 3B76  
                               l502 3888                                 l390 3BA4  
                               l393 3B7A                                 l474 3822  
                               l396 3B8E                                 l489 3BB6  
                               u610 3B04                                 u620 3B2A  
                               u621 3B26                                 u701 37A4  
                               u550 3B8A                                 u551 3B86  
                               u711 37B6                                 u617 3AFA  
                               u651 374A                                 u661 375C  
                               u671 376E                                 u681 3780  
                               u691 3792                                 u777 3874  
                               _sim 0689                       printLn@string 0536  
                               tosl 04FD                                 wreg 04E8  
                              l2032 38CA                                l1900 37BE  
                              l1902 37D2                                l1904 37E6  
                              l1826 3B7A                                l1906 37FA  
                              l1916 3BB2                                l1828 3B8A  
                              l1860 3B08                                l1908 380E  
                              l1870 3B9E                                l1862 3B0C  
                              l1872 3BA2                                l1856 3ACA  
                              l1858 3AD6                                l1874 3B56  
                              l1970 384E                                l1962 3824  
                              l1868 3B90                                l1876 3B6A  
                              l1980 386A                                l1972 3852  
                              l1964 3828                                l1878 3B70  
                              l1982 3880                                l1974 3856  
                              l1966 382E                                l1984 388A  
                              l1992 38B6                                l1976 385A  
                              l1968 3832                                l1898 3740  
                              l1986 3892                                l1994 38E8  
                              l1978 3860                                l1988 38AE  
                      _transmitData 3740                                STR_1 3711  
                              STR_2 372D                                STR_3 3724  
                              STR_4 371B                                STR_5 3737  
                              STR_8 373B                                STR_9 3733  
                              _FIFO 370F                                _LATA 04BE  
                              _LATB 04BF                                _LATC 04C0  
                              _LATD 04C1                                _LATE 04C2  
                              _PMD0 0060                                _PMD1 0061  
                              _PMD2 0062                                _PMD3 0063  
                              _PMD4 0064                                _PMD5 0065  
                              _PMD6 0066                                _PMD7 0067  
                              _PMD8 0068                                i2l81 39AA  
                              i2l75 3936                                i2l77 3970  
                              i2l78 39AA                                _WPUA 0401  
                              _WPUB 0409                                _WPUC 0411  
                              _WPUD 0419                                _WPUE 0421  
             _SPI1_DefaultRxHandler 3BBA                                _main 3824  
                              fsr0h 04EA                                indf0 04EF  
                              fsr0l 04E9                                fsr1l 04E1  
             _SPI1_DefaultTxHandler 3BB8                                start 001A  
                      ___param_bank 0000                   transmitData@token 0560  
                             ?_main 052B                               _U5BRG 02FA  
                             i2l342 3BBA                               i2l336 3BBC  
                             i2l348 3BB8                               _U5TXB 02EF  
                             _OSCEN 00B3                               _PORTB 04CF  
                             _TRISA 04C6                               _TRISB 04C7  
                             _TRISC 04C8                               _TRISD 04C9  
                             _TRISE 04CA                               _State 0558  
                transmitData@F23511 0600                  transmitData@F23521 065A  
                transmitData@F23513 0626                  transmitData@F23523 05EF  
                transmitData@F23515 0501                  transmitData@F23517 0647  
                transmitData@F23519 066A                               _errno 0556  
                             _print 3ACA                               pclath 04FA  
                             pclatu 04FB                               tablat 04F5  
                   __end_of_printLn 3B78                               plusw1 04E3  
                             plusw2 04DB                               status 04D8  
                      __end_of_FIFO 3711                     __initialization 39B4  
                 __end_of_DLC_BYTES 370A                        __end_of_main 38F4  
       ?_INTERRUPT_InterruptManager 052B                              ??_main 0540  
                     __activetblptr 0003         __end_of_SPI1_DefaultHandler 3BBE  
                            _C1CONH 0101                              _C1CONL 0100  
                            _C1CONU 0102                              ?_print 052E  
                            _ANSELA 0400                              _ANSELB 0408  
                            _ANSELC 0410                              _ANSELD 0418  
                            _ANSELE 0420              ?_SPI1_DefaultRxHandler 052B  
                            _U5CON0 02F7                              _U5CON1 02F8  
                            _U5FIFO 02FC                              _RC3PPS 0214  
                            _ODCONA 0402                              _ODCONB 040A  
                            _ODCONC 0412                              _ODCOND 041A  
                            _ODCONE 0422                              i2l1630 3952  
                            i2l1622 38FC                              i2l1632 397E  
                            i2l1624 390A                              i2l1634 398C  
                            i2l1626 3918                              i2l1628 3944  
                            _INLVLA 0404                              _INLVLB 040C  
                            _INLVLC 0414                              _INLVLD 041C  
                            _INLVLE 0424                              _OSCFRQ 00B1  
            ?_SPI1_DefaultTxHandler 052B                              clear_0 3A1A  
                            clear_1 3A26                              isa$std 0001  
                      transmit@byte 052D                        __pdataCOMRAM 0501  
                      __mediumconst 0000                    __end_of_setupPic 3BB8  
                            tblptrh 04F7                              tblptrl 04F6  
                            tblptru 04F8                              print@i 0534  
                         ??_printLn 053A                    __end_of_transmit 3B90  
                        __accesstop 0560             __end_of__initialization 3A3A  
               transmitData@CanData 053C                       ___rparam_used 0001  
                    __pcstackCOMRAM 052B             _SPI1_TxInterruptHandler 054D  
                      __pidataBANK5 3BA6                        __pidataBANK6 3A40  
                     __end_of_print 3B2C                  _spi1_configuration 370A  
                           ??_print 0532                          __pbssBANK6 0689  
                           IVTBASEH 045E                             IVTBASEL 045D  
                           IVTBASEU 045F          transmitData@dataListLength 053E  
                         _C1NBTCFGH 0105                           _C1NBTCFGL 0104  
                         _C1NBTCFGT 0107                           _C1NBTCFGU 0106  
                           _OSCCON1 00AD                             _OSCCON3 00AF  
                           _SPI1CLK 008C                             i2u40_40 3952  
                           i2u40_41 394E                           _C1TXQCONL 0150  
                           i2u42_40 397E                             i2u41_48 3958  
                           i2u42_41 397A                             i2u41_49 396C  
                           i2u43_40 398C                             i2u43_41 3988  
                           _SPI1RXB 0080                             i2u36_40 390A  
                           i2u36_41 3906                             _SPI1TXB 0081  
                           i2u44_48 3992                             i2u37_40 3918  
                           i2u44_49 39A6                             i2u37_41 3914  
                           _OSCTUNE 00B0                             i2u39_40 3944  
                           i2u38_48 391E                             i2u39_41 3940  
                           i2u38_49 3932                             _SLRCONA 0403  
                           _SLRCONB 040B                             _SLRCONC 0413  
                           _SLRCOND 041B                             _SLRCONE 0423  
                           __Hparam 0000                             __Lparam 0000  
                         ?_setupPic 052B                           ?_transmit 052B  
                      __psmallconst 3700                           _DLC_BYTES 3701  
                           __pcinit 39B4                             __ramtop 3700  
                           __ptext0 3824                             __ptext1 3740  
                           __ptext2 3B56                             __ptext3 3ACA  
                           __ptext4 3B78                             __ptext5 3BB2  
                           __ptext6 3B90                             __ptext7 38F4  
                           __ptext8 3BB8                             __ptext9 3BBA  
           ??_SPI1_DefaultRxHandler 052B                             _printLn 3B56  
                           main@sim 0542             ??_SPI1_DefaultTxHandler 052B  
              end_of_initialization 3A3A              fp__SPI1_DefaultHandler 0000  
                       _C1TRECUbits 0136             updateCoordinates@F23505 050D  
                 __end_of_setupUART 3BA6                           _SPI1TCNTL 0082  
                        ??_setupPic 052D                             postdec1 04E5  
                           postinc0 04EE                          ??_transmit 052D  
             _SPI1_InterruptHandler 0553                           _TRISCbits 04C8  
                       print@length 0530                         print@string 052E  
                  transmitData@data 05D6                    transmitData@init 05E3  
                  transmitData@para 05B3                    transmitData@send 05C6  
                        read@F23460 0523                          read@F23458 0518  
                  transmitData@term 05A7                       __pidataCOMRAM 3B2C  
               start_initialization 39B4                       ?_transmitData 053A  
                        ivt0x8_base 0008                         __pdataBANK5 05EF  
                       __pdataBANK6 0600                         __pbssCOMRAM 054D  
                     __pcstackBANK5 0560                      ??_transmitData 0540  
                          _C1FIFOBA 014C        ??_INTERRUPT_InterruptManager 052B  
                       __smallconst 3700                          _C1CONHbits 0101  
                        _C1CONTbits 0103                          _C1CONUbits 0102  
                          ?_printLn 0536       __end_of_SPI1_DefaultRxHandler 3BBC  
                        _C1INTHbits 011D                          _C1INTTbits 011F  
     __end_of_SPI1_DefaultTxHandler 3BBA                            _PIE3bits 04A1  
                      _SPI1CON0bits 0084                            _SPI1BAUD 0089  
                          _PIR3bits 04B1                            _SPI1CON0 0084  
                          _SPI1CON1 0085                            _SPI1CON2 0086  
                         _setupUART 3B90                 _SPI1_DefaultHandler 3BBC  
                   transmitData@sim 053A                     transmitData@url 0581  
                       _INTCON0bits 04D6                           copy_data0 39C8  
                         copy_data1 39E8                           copy_data2 3A08  
              ?_SPI1_DefaultHandler 052B                            __Hrparam 0000  
                          __Lrparam 0000                          ?_setupUART 052B  
              __end_of_transmitData 3824                            _dataList 0677  
                          __pivt0x8 0008                            __ptext10 3BBC  
                          __ptext11 0000               ??_SPI1_DefaultHandler 052B  
          fp__SPI1_DefaultRxHandler 0000            fp__SPI1_DefaultTxHandler 0000  
                          isa$xinst 0000                            _setupPic 3BB2  
                          _transmit 3B78  __end_of_INTERRUPT_InterruptManager 39B4  
        _INTERRUPT_InterruptManager 38F4                            intlevel2 0000  
           _SPI1_RxInterruptHandler 0550                          _SPI1SDIPPS 026B  
                        _SPI1SCKPPS 026A                         ??_setupUART 052D  
        __end_of_spi1_configuration 370F  
